ccollections
OrderedDict
p0
((lp1
(lp2
V\u30b2\u30fc\u30e0
p3
aI0
aa(lp4
V\u97f3\u697d
p5
aI1
aa(lp6
V\u30a2\u30cb\u30e1
p7
aI2
aa(lp8
V\u30a8\u30f3\u30bf\u30fc\u30c6\u30a4\u30e1\u30f3\u30c8
p9
aI3
aa(lp10
V\u5b9f\u6cc1\u30d7\u30ec\u30a4\u52d5\u753b
p11
aI4
aa(lp12
V\u6295\u7a3f\u8005\u30b3\u30e1\u30f3\u30c8
p13
aI5
aa(lp14
V\u3082\u3063\u3068\u8a55\u4fa1\u3055\u308c\u308b\u3079\u304d
p15
aI6
aa(lp16
V\u6b4c\u3063\u3066\u307f\u305f
p17
aI7
aa(lp18
V\u6771\u65b9
p19
aI8
aa(lp20
VMikuMikuDance
p21
aI9
aa(lp22
V\u30a2\u30a4\u30c9\u30eb\u30de\u30b9\u30bf\u30fc
p23
aI10
aa(lp24
V\u3086\u3063\u304f\u308a\u5b9f\u6cc1\u30d7\u30ec\u30a4
p25
aI11
aa(lp26
VVOCALOID
p27
aI12
aa(lp28
V\u305d\u306e\u4ed6
p29
aI13
aa(lp30
VR-18
p31
aI14
aa(lp32
V\u30b9\u30dd\u30fc\u30c4
p33
aI15
aa(lp34
V\u30e9\u30b8\u30aa
p35
aI16
aa(lp36
V\u4f5c\u696d\u7528BGM
p37
aI17
aa(lp38
V\u6f14\u594f\u3057\u3066\u307f\u305f
p39
aI18
aa(lp40
Vnull
p41
aI19
aa(lp42
V\u653f\u6cbb
p43
aI20
aa(lp44
V\u30d7\u30ec\u30a4\u52d5\u753b
p45
aI21
aa(lp46
V\u521d\u97f3\u30df\u30af
p47
aI22
aa(lp48
V\u4f8b\u306e\u30a2\u30ec
p49
aI23
aa(lp50
V\u8e0a\u3063\u3066\u307f\u305f
p51
aI24
aa(lp52
V\u30cb\u30b3\u30cb\u30b3\u30e0\u30fc\u30d3\u30fc\u30e1\u30fc\u30ab\u30fc
p53
aI25
aa(lp54
V\u65e5\u8a18
p55
aI26
aa(lp56
VMAD
p57
aI27
aa(lp58
VPS3
p59
aI28
aa(lp60
V\u30d1\u30c1\u30b9\u30ed
p61
aI29
aa(lp62
V\u771f\u590f\u306e\u591c\u306e\u6deb\u5922
p63
aI30
aa(lp64
V\u52d5\u7269
p65
aI31
aa(lp66
V\u63cf\u3044\u3066\u307f\u305f
p67
aI32
aa(lp68
V\u6d0b\u697d
p69
aI33
aa(lp70
V\u30dc\u30ab\u30ed\u30aa\u30ea\u30b8\u30ca\u30eb\u3092\u6b4c\u3063\u3066\u307f\u305f
p71
aI34
aa(lp72
VMUGEN
p73
aI35
aa(lp74
V\u30d1\u30c1\u30f3\u30b3
p75
aI36
aa(lp76
V\u30b5\u30e0\u30cd\u30db\u30a4\u30db\u30a4
p77
aI37
aa(lp78
V\u58f0\u512a
p79
aI38
aa(lp80
VPC\u30b2\u30fc\u30e0
p81
aI39
aa(lp82
V\u30dd\u30b1\u30e2\u30f3
p83
aI40
aa(lp84
V\u795e\u66f2
p85
aI41
aa(lp86
VAxisPowers\u30d8\u30bf\u30ea\u30a2
p87
aI42
aa(lp88
V\u30a8\u30ed\u30b2
p89
aI43
aa(lp90
V\u6599\u7406
p91
aI44
aa(lp92
V\u9ad8\u753b\u8cea
p93
aI45
aa(lp94
V\uff20BGM\u63a8\u5968
p95
aI46
aa(lp96
V\u79d1\u5b66
p97
aI47
aa(lp98
V\u683c\u95d8\u30b2\u30fc\u30e0
p99
aI48
aa(lp100
V\u30b2\u30fc\u30e0\u97f3\u697d
p101
aI49
aa(lp102
VMinecraft
p103
aI50
aa(lp104
V\u5b9f\u6cc1\u30d7\u30ec\u30a4
p105
aI51
aa(lp106
V\u904a\u622f\u738b
p107
aI52
aa(lp108
V\u8eca\u8f09\u52d5\u753b
p109
aI53
aa(lp110
V\u30b5\u30c3\u30ab\u30fc
p111
aI54
aa(lp112
VFPS
p113
aI55
aa(lp114
V\u30df\u30af\u30aa\u30ea\u30b8\u30ca\u30eb\u66f2
p115
aI56
aa(lp116
V\u4e09\u56fd\u5fd7\u5927\u6226
p117
aI57
aa(lp118
V\u8266\u968a\u3053\u308c\u304f\u3057\u3087\u3093
p119
aI58
aa(lp120
VPV
p121
aI59
aa(lp122
V\u97f3MAD
p123
aI60
aa(lp124
V\u304a\u3063\u3055\u3093\u30db\u30a4\u30db\u30a4
p125
aI61
aa(lp126
V\u6b74\u53f2
p127
aI62
aa(lp128
V\u5b9f\u6cc1\u30d7\u30ec\u30a4part1\u30ea\u30f3\u30af
p129
aI63
aa(lp130
V\u885d\u6483\u306e\u30e9\u30b9\u30c8
p131
aI64
aa(lp132
V\u30d0\u30a4\u30af
p133
aI65
aa(lp134
V\u5b57\u5e55\u30d7\u30ec\u30a4\u52d5\u753b
p135
aI66
aa(lp136
V\u8266\u3053\u308c
p137
aI67
aa(lp138
V\u795e\u56de
p139
aI68
aa(lp140
V\u30cb\u30b3\u30cb\u30b3\u30ab\u30e9\u30aa\u30b1DB
p141
aI69
aa(lp142
V\u9ad8\u97f3\u8cea
p143
aI70
aa(lp144
V\u9244\u9053
p145
aI71
aa(lp146
V\u4f5c\u3063\u3066\u307f\u305f
p147
aI72
aa(lp148
V\u30cb\u30b3\u30cb\u30b3\u6280\u8853\u90e8
p149
aI73
aa(lp150
V\u30a2\u30cb\u30bd\u30f3
p151
aI74
aa(lp152
V\u6771\u65b9\u624b\u66f8\u304d\u5287\u5834
p153
aI75
aa(lp154
V\u6771\u65b9MMD
p155
aI76
aa(lp156
V\u30cb\u30b3\u751f
p157
aI77
aa(lp158
V\u30b9\u30d1\u30ed\u30dc
p159
aI78
aa(lp160
V\u90a6\u697d
p161
aI79
aa(lp162
V\u93e1\u97f3\u30ea\u30f3
p163
aI80
aa(lp164
VXbox360
p165
aI81
aa(lp166
V\u30c6\u30a4\u30eb\u30ba
p167
aI82
aa(lp168
V\u30ae\u30bf\u30fc
p169
aI83
aa(lp170
V\u6620\u753b
p171
aI84
aa(lp172
V\u5e7b\u60f3\u5165\u308a\u30b7\u30ea\u30fc\u30ba
p173
aI85
aa(lp174
V\u30cb\u30b3\u30b9\u30ed
p175
aI86
aa(lp176
V\u30ac\u30f3\u30c0\u30e0
p177
aI87
aa(lp178
VOP
p179
aI88
aa(lp180
V\u81ea\u7136
p181
aI89
aa(lp182
V\u30cb\u30b3\u30ab\u30e9
p183
aI90
aa(lp184
V\u30d4\u30a2\u30ce
p185
aI91
aa(lp186
V\u6771\u65b9\u30f4\u30a9\u30fc\u30ab\u30eb
p187
aI92
aa(lp188
V\u8179\u7b4b\u5d29\u58ca
p189
aI93
aa(lp190
V\u5f3e\u3044\u3066\u307f\u305f
p191
aI94
aa(lp192
ViM@S\u67b6\u7a7a\u6226\u8a18\u30b7\u30ea\u30fc\u30ba
p193
aI95
aa(lp194
VUTAU
p195
aI96
aa(lp196
VXBOX360
p197
aI97
aa(lp198
V\u30dc\u30fc\u30c0\u30fc\u30d6\u30ec\u30a4\u30af
p199
aI98
aa(lp200
V\u30d6\u30ec\u30a4\u30d6\u30eb\u30fc
p201
aI99
aa(lp202
V\u97d3\u56fd
p203
aI100
aa(lp204
VMMD
p205
aI101
aa(lp206
V\u732b
p207
aI102
aa(lp208
VKAITO
p209
aI103
aa(lp210
V\u97f3\u30b2\u30fc
p211
aI104
aa(lp212
V\u4f5c\u696d\u7528\uff22\uff27\uff2d
p213
aI105
aa(lp214
V\u3072\u3050\u3089\u3057\u306e\u306a\u304f\u9803\u306b
p215
aI106
aa(lp216
VAP\u30d8\u30bf\u30ea\u30a2MMD
p217
aI107
aa(lp218
VCM
p219
aI108
aa(lp220
V\u30cb\u30b3\u30cb\u30b3\u52d5\u753b\u8b1b\u5ea7
p221
aI109
aa(lp222
V\u6226\u56fd\u5927\u6226
p223
aI110
aa(lp224
V\u7e1b\u308a\u30d7\u30ec\u30a4
p225
aI111
aa(lp226
Vmugen
p227
aI112
aa(lp228
VVOCALOID\u30ab\u30d0\u30fc\u66f2
p229
aI113
aa(lp230
V\u6771\u65b9\u30a2\u30ec\u30f3\u30b8
p231
aI114
aa(lp232
V\u3053\u308c\u306f\u3072\u3069\u3044
p233
aI115
aa(lp234
V\u30d7\u30ed\u91ce\u7403
p235
aI116
aa(lp236
V\u3089\u304d\u2606\u3059\u305f
p237
aI117
aa(lp238
VTAS
p239
aI118
aa(lp240
VMMD\u8266\u3053\u308c
p241
aI119
aa(lp242
V\u304a\u3063\u3071\u3044
p243
aI120
aa(lp244
V\u30d5\u30a1\u30df\u30b3\u30f3
p245
aI121
aa(lp246
V\u51fa\u30aa\u30c1
p247
aI122
aa(lp248
V\u305d\u3063\u3068\u8a55\u4fa1\u3055\u308c\u308b\u3079\u304d
p249
aI123
aa(lp250
Vbeatmania
p251
aI124
aa(lp252
V\u6dbc\u5bae\u30cf\u30eb\u30d2\u306e\u6182\u9b31
p253
aI125
aa(lp254
Vminecraft
p255
aI126
aa(lp256
V\u30a2\u30a4\u30c9\u30eb\u30de\u30b9\u30bf\u30fc2
p257
aI127
aa(lp258
V\u93e1\u97f3\u30ec\u30f3
p259
aI128
aa(lp260
V\u30d5\u30a3\u30ae\u30e5\u30a2\u30b9\u30b1\u30fc\u30c8
p261
aI129
aa(lp262
VPSP
p263
aI130
aa(lp264
VNovelsM@ster
p265
aI131
aa(lp266
V\u30f4\u30a3\u30b8\u30e5\u30a2\u30eb\u7cfb
p267
aI132
aa(lp268
V\u8ecd\u4e8b
p269
aI133
aa(lp270
V\u30ec\u30b9\u30ea\u30f3\u30b0\u30b7\u30ea\u30fc\u30ba
p271
aI134
aa(lp272
V\u6d99\u817a\u5d29\u58ca
p273
aI135
aa(lp274
VAKB48
p275
aI136
aa(lp276
V\u5de1\u97f3\u30eb\u30ab
p277
aI137
aa(lp278
V\u30d9\u30fc\u30b9
p279
aI138
aa(lp280
V\u30c9\u30e9\u30b4\u30f3\u30dc\u30fc\u30eb
p281
aI139
aa(lp282
V\u3051\u3044\u304a\u3093\uff01
p283
aI140
aa(lp284
V\u30db\u30e9\u30fc
p285
aI141
aa(lp286
V\u30dc\u30ab\u30ed\u30ab\u30e9\u30aa\u30b1DB
p287
aI142
aa(lp288
V\u30d5\u30a1\u30a4\u30a2\u30fc\u30a8\u30e0\u30d6\u30ec\u30e0
p289
aI143
aa(lp290
V\u30ab\u30aa\u30b9
p291
aI144
aa(lp292
V\u30c1\u30e3\u30f3\u30cd\u30eb\u685c
p293
aI145
aa(lp294
V\u30a2\u30a4\u30c9\u30eb\u30de\u30b9\u30bf\u30fc_\u30b7\u30f3\u30c7\u30ec\u30e9\u30ac\u30fc\u30eb\u30ba
p295
aI146
aa(lp296
V\u5200\u5263\u4e71\u821e
p297
aI147
aa(lp298
V\u30d5\u30ea\u30fc\u30b2\u30fc\u30e0
p299
aI148
aa(lp300
V\u30de\u30a4\u30f3\u30af\u30e9\u30d5\u30c8
p301
aI149
aa(lp302
VK-POP
p303
aI150
aa(lp304
V\u30d5\u30a1\u30a4\u30ca\u30eb\u30d5\u30a1\u30f3\u30bf\u30b8\u30fc
p305
aI151
aa(lp306
VEXVSFB
p307
aI152
aa(lp308
V\u5439\u3044\u305f\u3089\u8ca0\u3051
p309
aI153
aa(lp310
V\u6625\u9999
p311
aI154
aa(lp312
V\u30d7\u30ed\u30ec\u30b9
p313
aI155
aa(lp314
V\u6deb\u5922\u5b9f\u6cc1\u30b7\u30ea\u30fc\u30ba
p315
aI156
aa(lp316
V\u30dc\u30ab\u30ed\u30aa\u30ea\u30b8\u30ca\u30eb\u3092\u8e0a\u3063\u3066\u307f\u305f
p317
aI157
aa(lp318
V\u91ce\u7403
p319
aI158
aa(lp320
V\u3086\u3063\u304f\u308a\u5b9f\u6cc1
p321
aI159
aa(lp322
V\u30a2\u30fc\u30de\u30fc\u30c9\u30b3\u30a2
p323
aI160
aa(lp324
V\u30c6\u30cb\u30b9\u306e\u738b\u5b50\u69d8
p325
aI161
aa(lp326
Vxbox360
p327
aI162
aa(lp328
V\u9b54\u6cd5\u5c11\u5973\u307e\u3069\u304b\u2606\u30de\u30ae\u30ab
p329
aI163
aa(lp330
V\u30d8\u30c3\u30c9\u30db\u30f3\u63a8\u5968
p331
aI164
aa(lp332
V\u30cb\u30b3\u30cb\u30b3\u6b74\u53f2\u6226\u7565\u30b2\u30fc
p333
aI165
aa(lp334
V\u30b9\u30ed\u30c3\u30c8
p335
aI166
aa(lp336
V\u306c\u3053\u306c\u3053\u52d5\u753b
p337
aI167
aa(lp338
V\u4e09\u56fd\u5fd7
p339
aI168
aa(lp340
V\u6771\u65b9\u81ea\u4f5c\u30a2\u30ec\u30f3\u30b8
p341
aI169
aa(lp342
VPSO2
p343
aI170
aa(lp344
VMMD\u5200\u5263\u4e71\u821e
p345
aI171
aa(lp346
V\u30d0\u30c8\u30ec\u30dc
p347
aI172
aa(lp348
V\u30c9\u30e9\u30af\u30a8
p349
aI173
aa(lp350
V\u30e9\u30d6\u30e9\u30a4\u30d6\uff01
p351
aI174
aa(lp352
V\u9ebb\u96c0
p353
aI175
aa(lp354
V\u7d50\u6708\u3086\u304b\u308a\u5b9f\u6cc1\u30d7\u30ec\u30a4
p355
aI176
aa(lp356
V\u6226\u5834\u306e\u7d46
p357
aI177
aa(lp358
V\u7279\u64ae
p359
aI178
aa(lp360
V\u8b0e\u306e\u611f\u52d5
p361
aI179
aa(lp362
VMHF
p363
aI180
aa(lp364
V\u30c0\u30fc\u30af\u30bd\u30a6\u30eb
p365
aI181
aa(lp366
V\u9032\u6483\u306e\u5de8\u4eba
p367
aI182
aa(lp368
VWii
p369
aI183
aa(lp370
V\u30a2\u30e9\u30c9\u6226\u8a18
p371
aI184
aa(lp372
V\u5929\u6d77\u6625\u9999
p373
aI185
aa(lp374
VRO
p375
aI186
aa(lp376
VVOCAROCK
p377
aI187
aa(lp378
V\u5730\u4e0a\u306b\u964d\u308a\u305f\u5929\u4f7f\u9054
p379
aI188
aa(lp380
V\u9ed2\u5b50\u306e\u30d0\u30b9\u30b1
p381
aI189
aa(lp382
V\u30ab\u30e9\u30aa\u30b1
p383
aI190
aa(lp384
V\u9280\u9b42
p385
aI191
aa(lp386
V\u5bfe\u6226\u52d5\u753b
p387
aI192
aa(lp388
V\u4e09\u56fd\u5fd7\u5927\u6226\uff13
p389
aI193
aa(lp390
VBLAZBLUE
p391
aI194
aa(lp392
V\u30e1\u30c9\u30ec\u30fc
p393
aI195
aa(lp394
V\u30a2\u30cb\u30e1\u8272\u306e\u306a\u3044\u4f5c\u696d\u7528BGM
p395
aI196
aa(lp396
V\u7d33\u58eb\u306e\u793e\u4ea4\u5834
p397
aI197
aa(lp398
VGUMI
p399
aI198
aa(lp400
V\u540d\u66f2
p401
aI199
aa(lp402
V\u3086\u3063\u304f\u308aTRPG
p403
aI200
aa(lp404
V\u6a5f\u52d5\u6226\u58eb\u30ac\u30f3\u30c0\u30e000
p405
aI201
aa(lp406
VSTG
p407
aI202
aa(lp408
V\u6c38\u4e95\u5148\u751f
p409
aI203
aa(lp410
V\u30cf\u30ed\u30d7\u30ed
p411
aI204
aa(lp412
V\u7652\u3057
p413
aI205
aa(lp414
V\u30d1\u30ef\u30d7\u30ed
p415
aI206
aa(lp416
V\u30af\u30c8\u30a5\u30eb\u30d5\u795e\u8a71TRPG
p417
aI207
aa(lp418
V\u30d0\u30a4\u30aa\u30cf\u30b6\u30fc\u30c9
p419
aI208
aa(lp420
V\u6226\u56fdBASARA
p421
aI209
aa(lp422
V\u97f3\u91cf\u6ce8\u610f
p423
aI210
aa(lp424
VEXVS
p425
aI211
aa(lp426
VPS4
p427
aI212
aa(lp428
V\u4e09\u56fd\u5fd7\u5927\u62263
p429
aI213
aa(lp430
V\u30e2\u30f3\u30b9\u30bf\u30fc\u30cf\u30f3\u30bf\u30fc
p431
aI214
aa(lp432
VPS2
p433
aI215
aa(lp434
V\u30bc\u30eb\u30c0\u306e\u4f1d\u8aac
p435
aI216
aa(lp436
V\u3060\u3044\u305f\u3044\u3042\u3063\u3066\u308b
p437
aI217
aa(lp438
V\u3069\u3046\u3057\u3066\u3053\u3046\u306a\u3063\u305f
p439
aI218
aa(lp440
V\u5de8\u4e73
p441
aI219
aa(lp442
V\u30a2\u30a4\u30c9\u30eb
p443
aI220
aa(lp444
V\u30af\u30c3\u30ad\u30fc\u2606
p445
aI221
aa(lp446
V\u30e1\u30bf\u30eb
p447
aI222
aa(lp448
V\u7af6\u99ac
p449
aI223
aa(lp450
VTRPG
p451
aI224
aa(lp452
V\u30b9\u30fc\u30d1\u30fc\u30d5\u30a1\u30df\u30b3\u30f3
p453
aI225
aa(lp454
V\u4efb\u5929\u5802
p455
aI226
aa(lp456
V\u30af\u30e9\u30b7\u30c3\u30af
p457
aI227
aa(lp458
Vim@s\u67b6\u7a7a\u6226\u8a18\u30b7\u30ea\u30fc\u30ba
p459
aI228
aa(lp460
V\u65c5\u884c
p461
aI229
aa(lp462
V\u5317\u6597\u306e\u62f3
p463
aI230
aa(lp464
V\u30ec\u30c8\u30ed\u30b2\u30fc\u30e0
p465
aI231
aa(lp466
V\u30b9\u30de\u30d6\u30e9X
p467
aI232
aa(lp468
VFF11
p469
aI233
aa(lp470
V\u6c34\u6a39\u5948\u3005
p471
aI234
aa(lp472
V\u30a2\u30c8\u30e9\u30b9
p473
aI235
aa(lp474
V\u6587\u5b57\u3092\u8aad\u3080\u52d5\u753b
p475
aI236
aa(lp476
V\u30dd\u30c3\u30d7\u30f3
p477
aI237
aa(lp478
VRPG\u30c4\u30af\u30fc\u30eb
p479
aI238
aa(lp480
V\u30d8\u30c3\u30c9\u30d5\u30a9\u30f3\u63a8\u5968
p481
aI239
aa(lp482
V\u6771\u65b9\u5353\u904a\u622f
p483
aI240
aa(lp484
V\u5408\u5531\u30b7\u30ea\u30fc\u30ba
p485
aI241
aa(lp486
V\u97f3\u30b2\u30fcMAD
p487
aI242
aa(lp488
V\u30bb\u30ac
p489
aI243
aa(lp490
V\u5b9f\u6cc1
p491
aI244
aa(lp492
V\u30d7\u30ea\u30ad\u30e5\u30a2
p493
aI245
aa(lp494
V\u30b8\u30e7\u30b8\u30e7\u306e\u5947\u5999\u306a\u5192\u967a
p495
aI246
aa(lp496
V\u3082\u3063\u3068\u77e5\u3089\u308c\u308b\u3079\u304d
p497
aI247
aa(lp498
V\u51fa\u843d\u3061
p499
aI248
aa(lp500
V\u304a\u7b11\u3044
p501
aI249
aa(lp502
V\u91cd\u97f3\u30c6\u30c8
p503
aI250
aa(lp504
VMMD\u6226\u56fdBASARA
p505
aI251
aa(lp506
V\u5fd9\u3057\u3044\u4eba\u5411\u3051\u30b7\u30ea\u30fc\u30ba
p507
aI252
aa(lp508
VRTA
p509
aI253
aa(lp510
V\u30b3\u30fc\u30c9\u30ae\u30a2\u30b9
p511
aI254
aa(lp512
V\u5343\u5e74\u6226\u4e89\u30a2\u30a4\u30ae\u30b9
p513
aI255
aa(lp514
VLIVE
p515
aI256
aa(lp516
V\u6700\u7d42\u56de
p517
aI257
aa(lp518
VNovelsm@ster
p519
aI258
aa(lp520
V\u30d5\u30a1\u30eb\u30b3\u30e0
p521
aI259
aa(lp522
VED
p523
aI260
aa(lp524
V\u4e2d\u56fd
p525
aI261
aa(lp526
VSEGA
p527
aI262
aa(lp528
VMHP2G
p529
aI263
aa(lp530
V\u30b2\u30fc\u30e0\u5b9f\u6cc1
p531
aI264
aa(lp532
V\u30e2\u30fc\u30bf\u30fc\u30b9\u30dd\u30fc\u30c4
p533
aI265
aa(lp534
VBGM
p535
aI266
aa(lp536
VMTG
p537
aI267
aa(lp538
V\u677e\u5ca1\u4fee\u9020
p539
aI268
aa(lp540
V\u3086\u3063\u304f\u308a
p541
aI269
aa(lp542
V\u4fe1\u9577\u306e\u91ce\u671b
p543
aI270
aa(lp544
V\u30de\u30ea\u30aa
p545
aI271
aa(lp546
V\u3086\u3063\u304f\u308a\u89e3\u8aac
p547
aI272
aa(lp548
V\u30c6\u30b9\u30c8
p549
aI273
aa(lp550
V\u30a8\u30f4\u30a1\u30f3\u30b2\u30ea\u30aa\u30f3
p551
aI274
aa(lp552
V\u5982\u6708\u5343\u65e9
p553
aI275
aa(lp554
VMMD\u30e2\u30c7\u30eb\u914d\u5e03\u3042\u308a
p555
aI276
aa(lp556
V\u6700\u521d\u304b\u3089\u30af\u30e9\u30a4\u30de\u30c3\u30af\u30b9
p557
aI277
aa(lp558
V\u6771\u65b9\u6709\u9802\u5929
p559
aI278
aa(lp560
VGGXX
p561
aI279
aa(lp562
V\u3086\u3063\u304f\u308a\u5b9f\u6cc1\u30d7\u30ec\u30a4part1\u30ea\u30f3\u30af
p563
aI280
aa(lp564
V\u307e\u305f\u304a\u524d\u304b
p565
aI281
aa(lp566
V\u7dcf\u7d71\u95a3\u4e0b\u30b7\u30ea\u30fc\u30ba
p567
aI282
aa(lp568
V\u5c06\u68cb
p569
aI283
aa(lp570
V\u63a2\u3057\u3066\u305f\u3042\u306e\u66f2
p571
aI284
aa(lp572
V\u767e\u5408
p573
aI285
aa(lp574
VMEIKO
p575
aI286
aa(lp576
VPerfume
p577
aI287
aa(lp578
V2ch
p579
aI288
aa(lp580
V\u516c\u5f0f\u304c\u75c5\u6c17
p581
aI289
aa(lp582
V\u9055\u548c\u611f\u4ed5\u4e8b\u3057\u308d
p583
aI290
aa(lp584
V\u9032\u6483\u306eMMD
p585
aI291
aa(lp586
V\u4eee\u9762\u30e9\u30a4\u30c0\u30fc
p587
aI292
aa(lp588
V\u53e9\u3044\u3066\u307f\u305f
p589
aI293
aa(lp590
V\u30b9\u30fc\u30d1\u30fc\u30b9\u30c8\u30ea\u30fc\u30c8\u30d5\u30a1\u30a4\u30bf\u30fc\u2163_AE
p591
aI294
aa(lp592
V\u9ed9\u3063\u3066\u30de\u30a4\u30ea\u30b9
p593
aI295
aa(lp594
V\u30ea\u30ea\u30ab\u30eb\u306a\u306e\u306f
p595
aI296
aa(lp596
V\u30c9\u30e9\u30de
p597
aI297
aa(lp598
V\u30b0\u30ed\u6ce8\u610f
p599
aI298
aa(lp600
V\u306c\u3053
p601
aI299
aa(lp602
V\u30d1\u30ba\u30c9\u30e9
p603
aI300
aa(lp604
V\u30b9\u30d7\u30e9\u30c8\u30a5\u30fc\u30f3
p605
aI301
aa(lp606
V\u6d77\u5916\u306e\u53cd\u5fdc\u30b7\u30ea\u30fc\u30ba
p607
aI302
aa(lp608
V\u5343\u65e9
p609
aI303
aa(lp610
V\u30c6\u30cb\u30df\u30e5
p611
aI304
aa(lp612
VAP\u30d8\u30bf\u30ea\u30a2\u7709\u6bdb\u52d5\u753b
p613
aI305
aa(lp614
V\u6bd4\u8f03\u52d5\u753b
p615
aI306
aa(lp616
V\u602a\u8ac7
p617
aI307
aa(lp618
V\u30a6\u30eb\u30c8\u30e9\u30de\u30f3
p619
aI308
aa(lp620
VMUGEN\u30b9\u30c8\u30fc\u30ea\u30fc
p621
aI309
aa(lp622
VIIDX
p623
aI310
aa(lp624
V\u30a2\u30cb\u30bd\u30f3full
p625
aI311
aa(lp626
V\u30db\u30e9\u30fc\u30b2\u30fc\u30e0
p627
aI312
aa(lp628
V\u30c9\u30e9\u30e0
p629
aI313
aa(lp630
VBBCP
p631
aI314
aa(lp632
V\u30ae\u30bf\u30c9\u30e9
p633
aI315
aa(lp634
V\u91e3\u308a
p635
aI316
aa(lp636
VMMDm@ster
p637
aI317
aa(lp638
V\u3086\u3063\u304f\u308a\u30ed\u30dc\u30c3\u30c8\u7269\u5b9f\u6cc1
p639
aI318
aa(lp640
V\u67b6\u7a7a\u30c7\u30e5\u30a8\u30eb
p641
aI319
aa(lp642
V\u5e02\u5834\u5236\u5727
p643
aI320
aa(lp644
V\u30c4\u30fc\u30ea\u30f3\u30b0
p645
aI321
aa(lp646
V\u6c11\u4e3b\u515a
p647
aI322
aa(lp648
V\u53f0\u6e7e
p649
aI323
aa(lp650
VMMD\u30c9\u30e9\u30de
p651
aI324
aa(lp652
V\u30dc\u30ab\u30ed\u30aa\u30ea\u30b8\u30ca\u30eb\u3092\u6f14\u594f\u3057\u3066\u307f\u305f
p653
aI325
aa(lp654
V\u30c9\u30e9\u3048\u3082\u3093
p655
aI326
aa(lp656
V\u30b3\u30b9\u30d7\u30ec
p657
aI327
aa(lp658
VRPG
p659
aI328
aa(lp660
V\u30cb\u30b3\u30cb\u30b3\u30a4\u30f3\u30c7\u30a3\u30fc\u30ba
p661
aI329
aa(lp662
V\u30b2\u30fc\u30e0\u30a8\u30d5\u30a7\u30af\u30c8\u96c6
p663
aI330
aa(lp664
V\u5909\u614b\u753b\u8cea
p665
aI331
aa(lp666
V\u30de\u30c3\u30b7\u30e5\u30a2\u30c3\u30d7
p667
aI332
aa(lp668
VBORDERBREAK
p669
aI333
aa(lp670
V\u30b5\u30e0\u30cd\u30d6\u30e9\u30c3\u30af\u30db\u30fc\u30eb
p671
aI334
aa(lp672
V\u30ac\u30f3\u30c0\u30e0\u30aa\u30f3\u30e9\u30a4\u30f3
p673
aI335
aa(lp674
V\u795e\u8c37\u6d69\u53f2
p675
aI336
aa(lp676
V\u7530\u6751\u3086\u304b\u308a
p677
aI337
aa(lp678
V\u30d6\u30ed\u30ea\u30fc
p679
aI338
aa(lp680
V\u5fc5\u9808\u30a2\u30e2\u30c8\u9178
p681
aI339
aa(lp682
V\u30c7\u30a3\u30ba\u30cb\u30fc
p683
aI340
aa(lp684
V\u671f\u5f85\u306e\u65b0\u4eba
p685
aI341
aa(lp686
V\u30ed\u30c3\u30af\u30de\u30f3
p687
aI342
aa(lp688
V\u795e\u753b\u8cea
p689
aI343
aa(lp690
V\u4f5c\u696d\u59a8\u5bb3\u7528BGM
p691
aI344
aa(lp692
V\u30ad\u30e3\u30e9\u30bd\u30f3
p693
aI345
aa(lp694
VCLANNAD
p695
aI346
aa(lp696
V\u8b0e\u306e\u4e2d\u6bd2\u6027
p697
aI347
aa(lp698
V\u3077\u3088\u3077\u3088
p699
aI348
aa(lp700
VF1
p701
aI349
aa(lp702
V\u5c11\u5973\u6642\u4ee3
p703
aI350
aa(lp704
V\u5439\u594f\u697d
p705
aI351
aa(lp706
V\u5b9f\u6cc1\u30d7\u30ec\u30a4Part1\u30ea\u30f3\u30af
p707
aI352
aa(lp708
V3DS
p709
aI353
aa(lp710
V\u30b5\u30e0\u30cd\u30d0\u30a4\u30d0\u30a4
p711
aI354
aa(lp712
V\u4eba\u985e\u306b\u306f\u65e9\u3059\u304e\u308b\u52d5\u753b
p713
aI355
aa(lp714
V\u3068\u3042\u308b\u79d1\u5b66\u306e\u8d85\u96fb\u78c1\u7832
p715
aI356
aa(lp716
VVOCALOID-PV
p717
aI357
aa(lp718
V\u4e16\u754c\u306e\u65b0\u7740\u52d5\u753b\u5b8c\u8d70\u7d44
p719
aI358
aa(lp720
VKOF
p721
aI359
aa(lp722
V\u5358\u66f2\u4f5c\u696d\u7528BGM
p723
aI360
aa(lp724
V\u30bd\u30fc\u30c9\u30fb\u30ef\u30fc\u30eb\u30c92.0
p725
aI361
aa(lp726
V\u3068\u3042\u308b\u9b54\u8853\u306e\u7981\u66f8\u76ee\u9332
p727
aI362
aa(lp728
V\u6697\u9ed2\u653e\u9001
p729
aI363
aa(lp730
V\u3046\u3093\u3053\u3061\u3083\u3093
p731
aI364
aa(lp732
V\u30c7\u30e2\u30f3\u30ba\u30bd\u30a6\u30eb
p733
aI365
aa(lp734
V\u81ea\u6c11\u515a
p735
aI366
aa(lp736
V\u7d50\u6708\u3086\u304b\u308a
p737
aI367
aa(lp738
V\u30e9\u30f3\u30ad\u30f3\u30b0
p739
aI368
aa(lp740
ViM@S\u30b3\u30e9\u30dcPV
p741
aI369
aa(lp742
VSound_Horizon
p743
aI370
aa(lp744
V\u30b8\u30e7\u30b8\u30e7\u306e\u5947\u5999\u306aMMD
p745
aI371
aa(lp746
V\u624d\u80fd\u306e\u7121\u99c4\u9063\u3044
p747
aI372
aa(lp748
VAP\u30d8\u30bf\u30ea\u30a2\u65e5\u672c\u30ea\u30f3\u30af
p749
aI373
aa(lp750
VJOYSOUND\u914d\u4fe1\u4e2d
p751
aI374
aa(lp752
V\u4e2d\u91ceTRF
p753
aI375
aa(lp754
V\u5618\u5b57\u5e55\u30b7\u30ea\u30fc\u30ba
p755
aI376
aa(lp756
V\u30a8\u30ed\u30b2\u30bd\u30f3\u30b0full
p757
aI377
aa(lp758
V\uff2d\uff21\uff24
p759
aI378
aa(lp760
V\u30d1\u30f3\u30c1\u30e9
p761
aI379
aa(lp762
V\u683c\u95d8\u6280
p763
aI380
aa(lp764
V\u5408\u308f\u305b\u3066\u307f\u305f
p765
aI381
aa(lp766
Vjubeat
p767
aI382
aa(lp768
VMIDI
p769
aI383
aa(lp770
VFF14
p771
aI384
aa(lp772
V\u5973\u6027\u5b9f\u6cc1part1\u30ea\u30f3\u30af
p773
aI385
aa(lp774
V\u691c\u7d22\u59a8\u5bb3
p775
aI386
aa(lp776
V\u3072\u308d\u304f\u3093
p777
aI387
aa(lp778
V\u96ea\u6b69
p779
aI388
aa(lp780
V\u30cb\u30b3\u30cb\u30fb\u30b3\u30e2\u30f3\u30ba
p781
aI389
aa(lp782
V\u30b9\u30fc\u30d1\u30fc\u30ed\u30dc\u30c3\u30c8\u5927\u6226
p783
aI390
aa(lp784
V\u5728\u7279\u4f1a
p785
aI391
aa(lp786
V\u6df7\u305c\u308b\u306a\u81ea\u7136
p787
aI392
aa(lp788
V\u8429\u539f\u96ea\u6b69
p789
aI393
aa(lp790
V\u6749\u7530\u667a\u548c
p791
aI394
aa(lp792
V\u30ac\u30f3\u30c0\u30e0\u30d0\u30c8\u30eb\u30aa\u30da\u30ec\u30fc\u30b7\u30e7\u30f3
p793
aI395
aa(lp794
VAV\uff08\u30a2\u30cb\u30de\u30eb\u30d3\u30c7\u30aa\uff09
p795
aI396
aa(lp796
VFEZ
p797
aI397
aa(lp798
V\u4f5c\u8005\u306f\u75c5\u6c17\u30b7\u30ea\u30fc\u30ba
p799
aI398
aa(lp800
V\u30ed\u30c3\u30af
p801
aI399
aa(lp802
V\u30b8\u30e3\u30f3\u30d0\u30ea.TV
p803
aI400
aa(lp804
V\u30dc\u30fc\u30c0\u30fc\u30d6\u30ec\u30a4\u30af\u5916\u90e8\u51fa\u529b
p805
aI401
aa(lp806
V\u6d77\u5916\u30c9\u30e9\u30de
p807
aI402
aa(lp808
V\u5c0f\u91ce\u5927\u8f14
p809
aI403
aa(lp810
V\u611b\u3059\u3079\u304d\u99ac\u9e7f
p811
aI404
aa(lp812
V\u958b\u5c01\u52d5\u753b
p813
aI405
aa(lp814
V\u72ac
p815
aI406
aa(lp816
V\u8b0e\u306e\u6280\u8853
p817
aI407
aa(lp818
V\u3053\u3063\u3061\u307f\u3093\u306a
p819
aI408
aa(lp820
V\u91d8\u5bae\u7406\u6075
p821
aI409
aa(lp822
V\u8033\u30b3\u30d4
p823
aI410
aa(lp824
VEXVSMB
p825
aI411
aa(lp826
V\u30c5\u30ab\u30ea\u30f3\u30af
p827
aI412
aa(lp828
V\u30c9\u30ad\u30e5\u30e1\u30f3\u30bf\u30ea\u30fc
p829
aI413
aa(lp830
V\u30c9\u30ca\u30eb\u30c9
p831
aI414
aa(lp832
V\u30ea\u30e7\u30ca
p833
aI415
aa(lp834
VMMD\u9280\u9b42
p835
aI416
aa(lp836
V\u30e2\u30fc\u30cb\u30f3\u30b0\u5a18\u3002
p837
aI417
aa(lp838
V\u306a\u306b\u3053\u308c\u304b\u308f\u3044\u3044
p839
aI418
aa(lp840
V\u30d0\u30b0
p841
aI419
aa(lp842
V\u5831\u9053
p843
aI420
aa(lp844
VMHP3
p845
aI421
aa(lp846
V\u661f\u4e95\u7f8e\u5e0c
p847
aI422
aa(lp848
VKOTOKO
p849
aI423
aa(lp850
V\u304a\u307e\u3051\u304c\u672c\u7de8
p851
aI424
aa(lp852
V\u5b89\u500d\u664b\u4e09
p853
aI425
aa(lp854
VSFC
p855
aI426
aa(lp856
VFate
p857
aI427
aa(lp858
VDDR
p859
aI428
aa(lp860
V\u6df7\u305c\u308b\u306a\u5371\u967a
p861
aI429
aa(lp862
V\u30ad\u30f3\u30b0\u30c0\u30e0\u30cf\u30fc\u30c4
p863
aI430
aa(lp864
V\u30b5\u30e0\u30cd\u30d0\u30ad\u30e5\u30fc\u30e0
p865
aI431
aa(lp866
V\u30ef\u30f3\u30d4\u30fc\u30b9
p867
aI432
aa(lp868
V\u83ca\u5730\u771f
p869
aI433
aa(lp870
V3
p871
aI434
aa(lp872
VMUGEN\u30ad\u30e3\u30e9\u4f5c\u6210
p873
aI435
aa(lp874
V\u30b7\u30e5\u30fc\u30eb
p875
aI436
aa(lp876
V\u30de\u30af\u30ed\u30b9F
p877
aI437
aa(lp878
V\u30c8\u30e9\u30f3\u30b9\u30d5\u30a9\u30fc\u30de\u30fc
p879
aI438
aa(lp880
VGUMI\u30aa\u30ea\u30b8\u30ca\u30eb\u66f2
p881
aI439
aa(lp882
V\u82b1\u6fa4\u9999\u83dc
p883
aI440
aa(lp884
V2
p885
aI441
aa(lp886
V\u30b5\u30c9\u30f3\u30a2\u30bf\u30c3\u30af
p887
aI442
aa(lp888
VMGO
p889
aI443
aa(lp890
V\u3086\u3063\u304f\u308a\u602a\u8ac7
p891
aI444
aa(lp892
V\u307f\u3093\u306a\u306e\u30c8\u30e9\u30a6\u30de
p893
aI445
aa(lp894
V\u30a8\u30ed\u30b2\u30bd\u30f3\u30b0
p895
aI446
aa(lp896
V4
p897
aI447
aa(lp898
V\u30a8\u30b3\u30ce\u30df\u30fc\u75c7\u5019\u7fa4
p899
aI448
aa(lp900
V\u30b2\u30fc\u30e0\u7cfbAP\u30d8\u30bf\u30ea\u30a2
p901
aI449
aa(lp902
VFF
p903
aI450
aa(lp904
V\u30a8\u30ed
p905
aI451
aa(lp906
V\u30da\u30eb\u30bd\u30ca
p907
aI452
aa(lp908
V\u30a2\u30fc\u30b1\u30fc\u30c9
p909
aI453
aa(lp910
V5
p911
aI454
aa(lp912
V\u3046\u307f\u306d\u3053\u306e\u306a\u304f\u9803\u306b
p913
aI455
aa(lp914
VGTA
p915
aI456
aa(lp916
VB'z
p917
aI457
aa(lp918
V\u30e2\u30f3\u30cf\u30f3
p919
aI458
aa(lp920
VVOCALOID\u2192VOCALOID\u30ab\u30d0\u30fc
p921
aI459
aa(lp922
V\u30cb\u30b3\u30d1\u30c1
p923
aI460
aa(lp924
VSplatoon
p925
aI461
aa(lp926
V\u771f
p927
aI462
aa(lp928
V\u30c4\u30f3\u30c7\u30ec
p929
aI463
aa(lp930
VTIGER&amp;BUNNY
p931
aI464
aa(lp932
V\u91ce\u7363\u5148\u8f29
p933
aI465
aa(lp934
VPS
p935
aI466
aa(lp936
VWorld_of_Tanks
p937
aI467
aa(lp938
V\u30b5\u30af\u30e9\u5927\u6226
p939
aI468
aa(lp940
V\u3084\u3088\u3044
p941
aI469
aa(lp942
V\u30b9\u30de\u30d6\u30e9
p943
aI470
aa(lp944
VAP\u30d8\u30bf\u30ea\u30a2\u666e\u61ab\u30ea\u30f3\u30af
p945
aI471
aa(lp946
V\u30a2\u30a4\u30c9\u30eb\u30de\u30b9\u30bf\u30fc(\u30a2\u30cb\u30e1)
p947
aI472
aa(lp948
V\u30c1\u30fc\u30c8
p949
aI473
aa(lp950
VBMS
p951
aI474
aa(lp952
VBB\u5148\u8f29\u30b7\u30ea\u30fc\u30ba
p953
aI475
aa(lp954
V\u6016\u3044\u8a71
p955
aI476
aa(lp956
V\u7248\u6a29\u30ad\u30e3\u30e9\u5e7b\u60f3\u5165\u308a\u30ea\u30f3\u30af
p957
aI477
aa(lp958
Vmikumikudance
p959
aI478
aa(lp960
V\u540d\u63a2\u5075\u30b3\u30ca\u30f3
p961
aI479
aa(lp962
V\u66ff\u3048\u6b4c
p963
aI480
aa(lp964
V\u6afb\u4e95\u5b5d\u5b8f
p965
aI481
aa(lp966
V\u30ea\u30f3\u30aa\u30ea\u30b8\u30ca\u30eb\u66f2
p967
aI482
aa(lp968
VNARUTO
p969
aI483
aa(lp970
V\u9ad8\u69fb\u3084\u3088\u3044
p971
aI484
aa(lp972
V1
p973
aI485
aa(lp974
V\u516c\u5f0f\u304c\u75c5\u6c17\u30b7\u30ea\u30fc\u30ba
p975
aI486
aa(lp976
V\u30cb\u30b3\u30cb\u30b3\u30c7\u30a3\u30ba\u30cb\u30fc\u30c4\u30a2\u30fc
p977
aI487
aa(lp978
V\u304a\u5c3b
p979
aI488
aa(lp980
V\u7f8e\u5e0c
p981
aI489
aa(lp982
V\u96a0\u308c\u305f\u540d\u66f2
p983
aI490
aa(lp984
V\u30cb\u30e4\u30cb\u30e4\u52d5\u753b
p985
aI491
aa(lp986
V\u3051\u3044\u304a\u3093\uff01\uff01
p987
aI492
aa(lp988
V6
p989
aI493
aa(lp990
V\u30dd\u30b1\u30e2\u30f3XY
p991
aI494
aa(lp992
V\u30ab\u30d7\u30b3\u30f3
p993
aI495
aa(lp994
VDS
p995
aI496
aa(lp996
V\u4e09\u56fd\u5fd7\u2168
p997
aI497
aa(lp998
V\u30b8\u30e7\u30b8\u30e7
p999
aI498
aa(lp1000
V\u521d\u6295\u7a3f
p1001
aI499
aa(lp1002
V\u592a\u9f13\u306e\u9054\u4eba
p1003
aI500
aa(lp1004
V\u653e\u9001\u4e8b\u6545
p1005
aI501
aa(lp1006
VWWE
p1007
aI502
aa(lp1008
V\u30b9\u30fc\u30d1\u30fc\u30d7\u30ec\u30a4
p1009
aI503
aa(lp1010
VWoT
p1011
aI504
aa(lp1012
V\u30ed\u30fc\u30bc\u30f3\u30e1\u30a4\u30c7\u30f3
p1013
aI505
aa(lp1014
V\u7d33\u58eb\u5411\u3051
p1015
aI506
aa(lp1016
V\u81ea\u885b\u968a
p1017
aI507
aa(lp1018
V\u65e5\u5e38
p1019
aI508
aa(lp1020
V\u5c3b
p1021
aI509
aa(lp1022
V\u30ab\u30fc\u30d3\u30a3
p1023
aI510
aa(lp1024
V\u30c9\u30e9\u30deCD
p1025
aI511
aa(lp1026
V\u30bd\u30cb\u30c3\u30af
p1027
aI512
aa(lp1028
VMLB
p1029
aI513
aa(lp1030
V\u5316\u7269\u8a9e
p1031
aI514
aa(lp1032
V\u56db\u6761\u8cb4\u97f3
p1033
aI515
aa(lp1034
V\u5973\u795e\u8ee2\u751f
p1035
aI516
aa(lp1036
V\u5800\u6c5f\u7531\u8863
p1037
aI517
aa(lp1038
V\u4f1d\u8aac\u306e\u59cb\u307e\u308a
p1039
aI518
aa(lp1040
VBF3
p1041
aI519
aa(lp1042
VVOCALOID\u2192UTAU\u30ab\u30d0\u30fc\u66f2
p1043
aI520
aa(lp1044
V\u9ed2\u6b74\u53f2
p1045
aI521
aa(lp1046
V7
p1047
aI522
aa(lp1048
V\u3082\u3063\u3068\u3082\u3063\u3068\u8a55\u4fa1\u3055\u308c\u308b\u3079\u304d
p1049
aI523
aa(lp1050
V\u4fe1\u983c\u306e\u30b3\u30e1\u7387
p1051
aI524
aa(lp1052
V\u54f2\u5b66
p1053
aI525
aa(lp1054
V\u97f3\u7121\u5c0f\u9ce5
p1055
aI526
aa(lp1056
V\u3046\u305f\u306e\u2606\u30d7\u30ea\u30f3\u30b9\u3055\u307e\u3063\u266a
p1057
aI527
aa(lp1058
V\u4e3b\u984c\u6b4c\u5dee\u3057\u66ff\u3048MAD
p1059
aI528
aa(lp1060
V\u306a\u305c\u4f38\u3073\u306a\u3044
p1061
aI529
aa(lp1062
V\u30a8\u30fc\u30b9\u30b3\u30f3\u30d0\u30c3\u30c8
p1063
aI530
aa(lp1064
VHIPHOP
p1065
aI531
aa(lp1066
VAV(\u30a2\u30cb\u30de\u30eb\u30d3\u30c7\u30aa)
p1067
aI532
aa(lp1068
V\u9759\u6b62\u753bMAD
p1069
aI533
aa(lp1070
V\u795e\u5a01\u304c\u304f\u307d
p1071
aI534
aa(lp1072
V\u661f\u306e\u30ab\u30fc\u30d3\u30a3
p1073
aI535
aa(lp1074
VDIVA\u30a8\u30c7\u30a3\u30c3\u30c8\u52d5\u753b
p1075
aI536
aa(lp1076
V\u9df2\u5d0e\u5065
p1077
aI537
aa(lp1078
V\u4e09\u6d66\u3042\u305a\u3055
p1079
aI538
aa(lp1080
VAC\u5317\u6597\u306e\u62f3
p1081
aI539
aa(lp1082
V\u30dd\u30b1\u30e2\u30f3BW
p1083
aI540
aa(lp1084
V\u30a6\u30eb\u30c8\u30e9\u30b9\u30c8\u30ea\u30fc\u30c8\u30d5\u30a1\u30a4\u30bf\u30fc\u2163
p1085
aI541
aa(lp1086
VLive
p1087
aI542
aa(lp1088
V\u30af\u30ec\u30e8\u30f3\u3057\u3093\u3061\u3083\u3093
p1089
aI543
aa(lp1090
V\u6211\u90a3\u8987\u97ff
p1091
aI544
aa(lp1092
V\u30a2\u30ec\u30f3\u30b8
p1093
aI545
aa(lp1094
V\u9234\u6751\u5065\u4e00
p1095
aI546
aa(lp1096
V\u30ae\u30e3\u30b0\u30de\u30f3\u30ac\u65e5\u548c
p1097
aI547
aa(lp1098
V\u304a\u307e\u3051\u3082\u672c\u7de8
p1099
aI548
aa(lp1100
Vsuperjunior
p1101
aI549
aa(lp1102
V\u30df\u30ab\u30c9\u30e9\u30f3\u30d0\u30c8
p1103
aI550
aa(lp1104
VMGS
p1105
aI551
aa(lp1106
V\u767a\u60f3\u306e\u52dd\u5229
p1107
aI552
aa(lp1108
V\u98a8\u6765\u306e\u30b7\u30ec\u30f3
p1109
aI553
aa(lp1110
V\u30ac\u30f3\u30c0\u30e0SEED
p1111
aI554
aa(lp1112
V\u79cb\u6708\u5f8b\u5b50
p1113
aI555
aa(lp1114
V\u82f1\u96c4\u4f1d\u8aac
p1115
aI556
aa(lp1116
V\u30dd\u30b1\u30e2\u30f3XY\u5bfe\u6226\u30ea\u30f3\u30af
p1117
aI557
aa(lp1118
V\u30ed\u30ea\u30b3\u30f3\u30db\u30a4\u30db\u30a4
p1119
aI558
aa(lp1120
V\u30cb\u30b3\u30e9\u30c3\u30d7
p1121
aI559
aa(lp1122
VMMD\u30e6\u30fc\u30b6\u30fc\u30e2\u30c7\u30eb
p1123
aI560
aa(lp1124
V\u30a4\u30ca\u30ba\u30de\u30a4\u30ec\u30d6\u30f3
p1125
aI561
aa(lp1126
VPSVita
p1127
aI562
aa(lp1128
V\u30a2\u30de\u30ac\u30df
p1129
aI563
aa(lp1130
V\u4fe1\u983c\u306e\u30b7\u30b3\u7387
p1131
aI564
aa(lp1132
V\u30d0\u30a4\u30aa\u30cf\u30b6\u30fc\u30c94
p1133
aI565
aa(lp1134
V\u5236\u9650\u30d7\u30ec\u30a4
p1135
aI566
aa(lp1136
V3rd
p1137
aI567
aa(lp1138
V\u30bb\u30ac\u30b5\u30bf\u30fc\u30f3
p1139
aI568
aa(lp1140
V\u5b8c\u5168\u306b\u4e00\u81f4
p1141
aI569
aa(lp1142
V\u30a8\u30ed\u30b2OP
p1143
aI570
aa(lp1144
V8
p1145
aI571
aa(lp1146
VBF4
p1147
aI572
aa(lp1148
V\u8584\u685c\u9b3c
p1149
aI573
aa(lp1150
VFF7
p1151
aI574
aa(lp1152
V\u5f26\u5dfb\u30de\u30ad\u5b9f\u6cc1\u30d7\u30ec\u30a4
p1153
aI575
aa(lp1154
V\u963f\u6f84\u4f73\u5948
p1155
aI576
aa(lp1156
V\u30a8\u30eb\u30b7\u30e3\u30c0\u30a4
p1157
aI577
aa(lp1158
V\u30b9\u30c8\u30e9\u30a4\u30af\u30a6\u30a3\u30c3\u30c1\u30fc\u30ba
p1159
aI578
aa(lp1160
V\u3064\u3093\u3067\u308c\u3093\u3053
p1161
aI579
aa(lp1162
V\u30a2\u30a4\u30de\u30b9\u7d19\u829d\u5c45
p1163
aI580
aa(lp1164
V\u5353\u30b2m@ster
p1165
aI581
aa(lp1166
V\u30ed\u30fc\u30c9\u30aa\u30d6\u30f4\u30a1\u30fc\u30df\u30ea\u30aa\u30f3
p1167
aI582
aa(lp1168
V\u30ab\u30fc\u30c9\u30d5\u30a1\u30a4\u30c8!!\u30f4\u30a1\u30f3\u30ac\u30fc\u30c9
p1169
aI583
aa(lp1170
VMW2
p1171
aI584
aa(lp1172
V\uff73\uff6f\uff70\uff73\uff6f\uff70\uff73\uff8f\uff73\uff8f(\uff9f\u2200\uff9f)
p1173
aI585
aa(lp1174
V\u61d0\u304bCM
p1175
aI586
aa(lp1176
V\u30da\u30eb\u30bd\u30ca4
p1177
aI587
aa(lp1178
V\u897f\u65e5\u66ae\u91cc\u30b2\u30fc\u30e0\u30b9\u30dd\u30c3\u30c8\u30d0\u30fc\u30b5\u30b9
p1179
aI588
aa(lp1180
V\u6c34\u702c\u4f0a\u7e54
p1181
aI589
aa(lp1182
VI've
p1183
aI590
aa(lp1184
V\u30c9\u30a2\u30e9
p1185
aI591
aa(lp1186
V\u30b2\u30fc\u30e0\u30d7\u30ec\u30a4part1\u30ea\u30f3\u30af
p1187
aI592
aa(lp1188
V\u30b5\u30e0\u30cd\u4e00\u672c\u91e3\u308a
p1189
aI593
aa(lp1190
V\u30b9\u30ab\u30a4\u30ea\u30e0
p1191
aI594
aa(lp1192
V\u7d0d\u5f97\u306e\u611f\u52d5
p1193
aI595
aa(lp1194
VSDVX
p1195
aI596
aa(lp1196
V\u30ae\u30eb\u30c6\u30a3\u30ae\u30a2
p1197
aI597
aa(lp1198
V\u30d7\u30ed\u306e\u72af\u884c
p1199
aI598
aa(lp1200
V\u30c1\u30e3\u30fc\u30b8\u30de\u30f3\u7814\uff01
p1201
aI599
aa(lp1202
VBL
p1203
aI600
aa(lp1204
VSNSD
p1205
aI601
aa(lp1206
VVOICEROID\u5b9f\u6cc1\u30d7\u30ec\u30a4
p1207
aI602
aa(lp1208
V\u30b7\u30b3\u30b7\u30b3\u52d5\u753b
p1209
aI603
aa(lp1210
V\u30de\u30b9\u30b4\u30df
p1211
aI604
aa(lp1212
V\u30cb\u30b3\u30cb\u30b3\u56fd\u969b\u4ea4\u6d41
p1213
aI605
aa(lp1214
V\u30b9\u30c8\u30ea\u30fc\u30c8\u30d5\u30a1\u30a4\u30bf\u30fc\u2163
p1215
aI606
aa(lp1216
VJAM_Project
p1217
aI607
aa(lp1218
V\u30b9\u30de\u30d6\u30e93DS/WiiU
p1219
aI608
aa(lp1220
V\u7537\u6027\u58f0\u512a
p1221
aI609
aa(lp1222
V\u3055\u3089\u306b\u8a55\u4fa1\u3055\u308c\u308b\u3079\u304d
p1223
aI610
aa(lp1224
V\u30eb\u30ab\u30aa\u30ea\u30b8\u30ca\u30eb\u66f2
p1225
aI611
aa(lp1226
V\u795e\u7de8\u96c6
p1227
aI612
aa(lp1228
V\u30cd\u30bf\u30d0\u30ec\u6ce8\u610f
p1229
aI613
aa(lp1230
V\u304a\u524d\u3089\u306e\u611b\u3067\u898b\u3048\u306a\u3044
p1231
aI614
aa(lp1232
V\u60aa\u9b54\u57ce\u30c9\u30e9\u30ad\u30e5\u30e9
p1233
aI615
aa(lp1234
VNHK
p1235
aI616
aa(lp1236
V\u521d\u898b\u30d7\u30ec\u30a4
p1237
aI617
aa(lp1238
V\u307f\u306a\u307f\u3051
p1239
aI618
aa(lp1240
V\u521d\u97f3\u30df\u30af-ProjectDIVA-
p1241
aI619
aa(lp1242
V\u65e5\u672c\u8a9e\u3067\u304a\uff4b
p1243
aI620
aa(lp1244
V\u535a\u9e97\u970a\u5922
p1245
aI621
aa(lp1246
V\u8150\u5411\u3051APH
p1247
aI622
aa(lp1248
V\u30aa\u30d6\u30ea\u30d3\u30aa\u30f3
p1249
aI623
aa(lp1250
V\u30e9\u30a4\u30d6
p1251
aI624
aa(lp1252
V\u30b3\u30e1\u30f3\u30c8\u975e\u8868\u793a\u63a8\u5968
p1253
aI625
aa(lp1254
VHD
p1255
aI626
aa(lp1256
V\u6c34\u7740
p1257
aI627
aa(lp1258
VAP\u30d8\u30bf\u30ea\u30a2HERO\u30ea\u30f3\u30af
p1259
aI628
aa(lp1260
V\u30c7\u30a3\u30b7\u30c7\u30a3\u30a2
p1261
aI629
aa(lp1262
V\u7dd1(\u751f\u653e\u9001\u4e3b)
p1263
aI630
aa(lp1264
VMMD\u30bf\u30a4\u30d0\u30cb
p1265
aI631
aa(lp1266
V\u30ac\u30f3\u30d7\u30e9
p1267
aI632
aa(lp1268
V\u5bae\u91ce\u771f\u5b88
p1269
aI633
aa(lp1270
VIA_-ARIA_ON_THE_PLANETES-
p1271
aI634
aa(lp1272
V\u79cb\u6708\u6dbc
p1273
aI635
aa(lp1274
V\u5de5\u696d\u5316MOD
p1275
aI636
aa(lp1276
VVer.2012
p1277
aI637
aa(lp1278
V\u304c\u304f\u3063\u307d\u3044\u3069
p1279
aI638
aa(lp1280
V\u5f31\u866b\u30da\u30c0\u30eb
p1281
aI639
aa(lp1282
VH.264
p1283
aI640
aa(lp1284
V\u30c9\u30e9\u30b4\u30f3\u30af\u30a8\u30b9\u30c8
p1285
aI641
aa(lp1286
VFF5
p1287
aI642
aa(lp1288
V\u3086\u308b\u3086\u308a
p1289
aI643
aa(lp1290
V\u30a2\u30cb\u30e1\u30ad\u30e3\u30e9\u7dcf\u96c6\u7de8\u30b7\u30ea\u30fc\u30ba
p1291
aI644
aa(lp1292
V\u8eca
p1293
aI645
aa(lp1294
VU.N.\u30aa\u30fc\u30a8\u30f3\u306f\u5f7c\u5973\u306a\u306e\u304b\uff1f
p1295
aI646
aa(lp1296
V\u4eca\u4e95\u9ebb\u7f8e
p1297
aI647
aa(lp1298
V\u30ea\u30c8\u30eb\u30d0\u30b9\u30bf\u30fc\u30ba\uff01
p1299
aI648
aa(lp1300
V\u8c4a\u5d0e\u611b\u751f
p1301
aI649
aa(lp1302
V\u30c1\u30eb\u30ce
p1303
aI650
aa(lp1304
V\u30e4\u30f3\u30c7\u30ec
p1305
aI651
aa(lp1306
VOP\u96c6
p1307
aI652
aa(lp1308
VBB\u7d20\u6750
p1309
aI653
aa(lp1310
V\u3051\u3057\u304b\u3089\u3093
p1311
aI654
aa(lp1312
V\u7121\u9650\u30eb\u30fc\u30d7
p1313
aI655
aa(lp1314
V\u8056\u95d8\u58eb\u661f\u77e2
p1315
aI656
aa(lp1316
V\u30c9\u30ea\u30fc\u30e0\u30af\u30e9\u30d6
p1317
aI657
aa(lp1318
V\u9006\u8ee2\u88c1\u5224
p1319
aI658
aa(lp1320
V\u5927\u5909\u306a\u9014\u4e2d\u4e0b\u8eca\u30b7\u30ea\u30fc\u30ba
p1321
aI659
aa(lp1322
V30\u5206\u9593\u8010\u4e45\u30b7\u30ea\u30fc\u30ba
p1323
aI660
aa(lp1324
V\u65e5\u7b20\u967d\u5b50
p1325
aI661
aa(lp1326
V\u5275\u4e16\u793a\u21ba
p1327
aI662
aa(lp1328
VFF10
p1329
aI663
aa(lp1330
V\u6771\u65b9\u4e8c\u6b21\u5275\u4f5c\u30b2\u30fc\u30e0
p1331
aI664
aa(lp1332
V\u4f0a\u7e54
p1333
aI665
aa(lp1334
V\u6b4c\u8a5e\u30b3\u30e1\u30f3\u30c8\u4ed8\u304d
p1335
aI666
aa(lp1336
V\u30ed\u30ea
p1337
aI667
aa(lp1338
VPC
p1339
aI668
aa(lp1340
V\u3042\u306b\u307e\u3055\u5f0f\u30df\u30af
p1341
aI669
aa(lp1342
V\u6797\u539f\u3081\u3050\u307f
p1343
aI670
aa(lp1344
V\u8ff7\u5217\u8eca\u3067\u884c\u3053\u3046\u30b7\u30ea\u30fc\u30ba
p1345
aI671
aa(lp1346
V\u8305\u539f\u5b9f\u91cc
p1347
aI672
aa(lp1348
V\u81ea\u52d5\u8eca
p1349
aI673
aa(lp1350
VVOCALOID\u51e6\u5973\u4f5c
p1351
aI674
aa(lp1352
V\u904a\u622f\u738b5D's
p1353
aI675
aa(lp1354
V\u5341\u516d\u591c\u54b2\u591c
p1355
aI676
aa(lp1356
V\u30b5\u30f3\u30c8\u30e9
p1357
aI677
aa(lp1358
V\u81ea\u8ee2\u8eca
p1359
aI678
aa(lp1360
V\u904b\u55b6\u306e\u304a\u6c17\u306b\u5165\u308a
p1361
aI679
aa(lp1362
VBB\u5148\u8f29\u5287\u5834
p1363
aI680
aa(lp1364
V\u4e0a\u7d1a\u8005\u5411\u3051
p1365
aI681
aa(lp1366
V\u30dd\u30b1\u30e2\u30f3ORAS
p1367
aI682
aa(lp1368
V\u3086\u3063\u304f\u308a\u5b9f\u6cc1\u30d7\u30ec\u30a4Part1\u30ea\u30f3\u30af
p1369
aI683
aa(lp1370
V\u524d\u9762\u5c55\u671b
p1371
aI684
aa(lp1372
VSkyrim
p1373
aI685
aa(lp1374
V\u8d64\u3044\u30cb\u30b3\u30cb\u30b3\u52d5\u753b
p1375
aI686
aa(lp1376
V\u30b3\u30ca\u30df
p1377
aI687
aa(lp1378
V\u30af\u30bd\u30b2\u30fc
p1379
aI688
aa(lp1380
V\u30a2\u30ea\u30b9\u30bd\u30d5\u30c8
p1381
aI689
aa(lp1382
V\u30a2\u30a4\u30c9\u30eb\u30de\u30b9\u30bf\u30fcDS
p1383
aI690
aa(lp1384
V\u9a5a\u7570\u7684\u306a\u4e2d\u6bd2\u6027
p1385
aI691
aa(lp1386
VUTAU\u30aa\u30ea\u30b8\u30ca\u30eb\u66f2
p1387
aI692
aa(lp1388
V\u5f8b\u5b50
p1389
aI693
aa(lp1390
V\u798f\u5c71\u6f64
p1391
aI694
aa(lp1392
VFate/Zero
p1393
aI695
aa(lp1394
V9
p1395
aI696
aa(lp1396
VRTS
p1397
aI697
aa(lp1398
VAPH
p1399
aI698
aa(lp1400
V\u5973\u6027\u5b9f\u6cc1
p1401
aI699
aa(lp1402
V\u7d44\u66f2\u300e\u30cb\u30b3\u30cb\u30b3\u52d5\u753b\u300f
p1403
aI700
aa(lp1404
V\u30de\u30a4\u30b1\u30eb\u30fb\u30b8\u30e3\u30af\u30bd\u30f3
p1405
aI701
aa(lp1406
V\u30d5\u30eb\u30dc\u30a4\u30b9
p1407
aI702
aa(lp1408
VGLAY
p1409
aI703
aa(lp1410
V\u6226\u56fd\u7121\u53cc
p1411
aI704
aa(lp1412
V\u30eb\u30d1\u30f3\u4e09\u4e16
p1413
aI705
aa(lp1414
V\u307f\u3093\u306a\u306e\u3046\u305f
p1415
aI706
aa(lp1416
VGODSGARDEN
p1417
aI707
aa(lp1418
V\u30a2\u30cb\u30bd\u30f3\u3092\u6b4c\u3063\u3066\u307f\u305f
p1419
aI708
aa(lp1420
V\u6771\u65b9\u30cb\u30b3\u30ab\u30e9
p1421
aI709
aa(lp1422
V\u30ea\u30f4\u30a1\u30a4
p1423
aI710
aa(lp1424
V\u9a5a\u304d\u306e\u767d\u3055
p1425
aI711
aa(lp1426
V\u559c\u591a\u6751\u82f1\u68a8
p1427
aI712
aa(lp1428
VIOSYS
p1429
aI713
aa(lp1430
V\u6771\u65b9\u539f\u66f2
p1431
aI714
aa(lp1432
V\u305d\u306e\u767a\u60f3\u306f\u306a\u304b\u3063\u305f
p1433
aI715
aa(lp1434
VWiiU
p1435
aI716
aa(lp1436
V\u5f31\u97f3\u30cf\u30af
p1437
aI717
aa(lp1438
V\u30af\u30ed\u30ce\u30c8\u30ea\u30ac\u30fc
p1439
aI718
aa(lp1440
VVOICEROID+_\u7d50\u6708\u3086\u304b\u308a
p1441
aI719
aa(lp1442
VAVA
p1443
aI720
aa(lp1444
V\u3044\u3044\u6700\u7d42\u56de\u3060\u3063\u305f
p1445
aI721
aa(lp1446
V\u30a2\u30e1\u30ea\u30ab
p1447
aI722
aa(lp1448
V\u30c7\u30b8\u30e2\u30f3
p1449
aI723
aa(lp1450
VFF6
p1451
aI724
aa(lp1452
V\u30d0\u30f3\u30d6\u30e9DX
p1453
aI725
aa(lp1454
V\u30c0\u30f3\u30ac\u30f3\u30ed\u30f3\u30d1
p1455
aI726
aa(lp1456
V\u30b2\u30fc\u30e0OP
p1457
aI727
aa(lp1458
VLoV
p1459
aI728
aa(lp1460
V\u97d3\u56fd\u306e\u30a2\u30a4\u30c9\u30eb
p1461
aI729
aa(lp1462
V\u30dd\u30b1\u30e2\u30f3ORAS\u5bfe\u6226\u30ea\u30f3\u30af
p1463
aI730
aa(lp1464
V\u30a2\u30cb\u30bd\u30f3\u30ab\u30e9\u30aa\u30b1DB
p1465
aI731
aa(lp1466
Vbiim\u5144\u8cb4\u30ea\u30b9\u30da\u30af\u30c8
p1467
aI732
aa(lp1468
V\u9727\u96e8\u9b54\u7406\u6c99
p1469
aI733
aa(lp1470
V\u7dd1\u5ddd\u5149
p1471
aI734
aa(lp1472
V\u76d7\u3093\u3067\u3044\u304d\u307e\u3057\u305f\u30b7\u30ea\u30fc\u30ba
p1473
aI735
aa(lp1474
V\u30e1\u30bf\u30eb\u30ae\u30a2
p1475
aI736
aa(lp1476
V\u30de\u30b8\u30ad\u30c1
p1477
aI737
aa(lp1478
V\u61d0\u304b\u3057\u30a2\u30cb\u30e1
p1479
aI738
aa(lp1480
V\u3042\u305a\u3055
p1481
aI739
aa(lp1482
V\u62bd\u51fa\u53ef
p1483
aI740
aa(lp1484
V\u3082\u3063\u3068\u4f38\u3073\u308b\u3079\u304d
p1485
aI741
aa(lp1486
VGTA4
p1487
aI742
aa(lp1488
V\u30c7\u30d3\u30eb\u30e1\u30a4\u30af\u30e9\u30a4
p1489
aI743
aa(lp1490
V\u30a2\u30f3\u30b1\u30fc\u30c8
p1491
aI744
aa(lp1492
V\u58f0\u512a\u306e\u672c\u6c17
p1493
aI745
aa(lp1494
V\u30b3\u30f3\u30dc\u30e0\u30fc\u30d3\u30fc
p1495
aI746
aa(lp1496
VJK
p1497
aI747
aa(lp1498
V\u7121\u53cc
p1499
aI748
aa(lp1500
V\u5742\u7530\u9280\u6642
p1501
aI749
aa(lp1502
V\u3055\u3088\u306a\u3089\u7d76\u671b\u5148\u751f
p1503
aI750
aa(lp1504
V\u30ed\u30dc\u30c3\u30c8\u30a2\u30cb\u30e1\u30b7\u30fc\u30f3\u96c6
p1505
aI751
aa(lp1506
V\u30e1\u30a4\u30d7\u30eb\u30b9\u30c8\u30fc\u30ea\u30fc
p1507
aI752
aa(lp1508
V\u4e95\u53e3\u88d5\u9999
p1509
aI753
aa(lp1510
V\u795e\u30b2\u30fc
p1511
aI754
aa(lp1512
V\u30c0\u30a6\u30f3\u30bf\u30a6\u30f3
p1513
aI755
aa(lp1514
V\u30ac\u30fc\u30eb\u30ba\uff06\u30d1\u30f3\u30c4\u30a1\u30fc
p1515
aI756
aa(lp1516
V\u30a2\u30cb\u30e1OP
p1517
aI757
aa(lp1518
V\u9854\u82b8
p1519
aI758
aa(lp1520
V\u30c8\u30fc\u30af\u30ed\u30a4\u30c9
p1521
aI759
aa(lp1522
V\u6717\u8aad
p1523
aI760
aa(lp1524
V\u51e6\u5211\u7528BGM
p1525
aI761
aa(lp1526
V\u91ce\u751f\u306e\u30d7\u30ed
p1527
aI762
aa(lp1528
V\u30cb\u30fc\u30bd
p1529
aI763
aa(lp1530
V\u3046\uff50\u4e3b\u5931\u8e2a\u30b7\u30ea\u30fc\u30ba
p1531
aI764
aa(lp1532
V\u5c0f\u5ba4\u54f2\u54c9
p1533
aI765
aa(lp1534
V\u6226\u95d8\u30b7\u30fc\u30f3
p1535
aI766
aa(lp1536
V\u5408\u5531
p1537
aI767
aa(lp1538
Vgamechariot
p1539
aI768
aa(lp1540
Vsteam
p1541
aI769
aa(lp1542
V\u904a\u622f\u738bOCG
p1543
aI770
aa(lp1544
V\u9f8d\u304c\u5982\u304f
p1545
aI771
aa(lp1546
V\u92fc\u306e\u932c\u91d1\u8853\u5e2b
p1547
aI772
aa(lp1548
V\u30c7\u30e5\u30a8\u30eb\u52d5\u753b
p1549
aI773
aa(lp1550
V\u5728\u65e5\u7279\u6a29\u3092\u8a31\u3055\u306a\u3044\u5e02\u6c11\u306e\u4f1a
p1551
aI774
aa(lp1552
V\u95c7\u306e\u30b2\u30fc\u30e0
p1553
aI775
aa(lp1554
V\u30c0\u30f3\u30b9
p1555
aI776
aa(lp1556
V\u4e2d\u6751\u7e6a\u91cc\u5b50
p1557
aI777
aa(lp1558
V\u30b9\u30fc\u30d1\u30fc\u30b9\u30c8\u30ea\u30fc\u30c8\u30d5\u30a1\u30a4\u30bf\u30fc\u2163
p1559
aI778
aa(lp1560
V\u30a8\u30a2\u30fc\u30de\u30f3\u304c\u5012\u305b\u306a\u3044
p1561
aI779
aa(lp1562
V\u30ed\u30de\u30b5\u30ac
p1563
aI780
aa(lp1564
VTOV
p1565
aI781
aa(lp1566
VGTA5
p1567
aI782
aa(lp1568
V\u4e59\u5973\u30b2\u30fc
p1569
aI783
aa(lp1570
V\u30a6\u30ca\u3061\u3083\u3093\u30de\u30f3
p1571
aI784
aa(lp1572
V\u904a\u622f\u738bADS
p1573
aI785
aa(lp1574
V\u7dd1\uff08\u751f\u653e\u9001\u4e3b\uff09
p1575
aI786
aa(lp1576
VMMD\u51e6\u5973\u4f5c
p1577
aI787
aa(lp1578
V\u30e9\u30c6\u30fc\u30eb
p1579
aI788
aa(lp1580
V\u5742\u672c\u771f\u7dbe
p1581
aI789
aa(lp1582
V\u30df\u30ab\u30c9
p1583
aI790
aa(lp1584
V\u7f8e\u811a
p1585
aI791
aa(lp1586
V\u7a7a\u8033
p1587
aI792
aa(lp1588
V\u65b0\u4e16\u7d00\u30a8\u30f4\u30a1\u30f3\u30b2\u30ea\u30aa\u30f3
p1589
aI793
aa(lp1590
Vim@s\u30b3\u30e9\u30dcPV
p1591
aI794
aa(lp1592
V\u30ac\u30f3\u30c0\u30e000
p1593
aI795
aa(lp1594
V\u30cb\u30b3\u30cb\u30b3\u624b\u82b8\u90e8
p1595
aI796
aa(lp1596
V\u30a4\u30b1\u30e1\u30f3
p1597
aI797
aa(lp1598
V\u5e73\u6ca2\u9032
p1599
aI798
aa(lp1600
VMMD\u30e2\u30fc\u30b7\u30e7\u30f3\u30c8\u30ec\u30fc\u30b9
p1601
aI799
aa(lp1602
V\u30c6\u30ec\u30d3\u6771\u65b9
p1603
aI800
aa(lp1604
V\u5728\u65e5
p1605
aI801
aa(lp1606
V\u30e1\u30eb\u30c8
p1607
aI802
aa(lp1608
V\u6771\u65e5\u672c\u5927\u9707\u707d
p1609
aI803
aa(lp1610
V\u56fd\u4f1a\u4e2d\u7d99\u30ea\u30f3\u30af
p1611
aI804
aa(lp1612
V\u9006\u518d\u751f
p1613
aI805
aa(lp1614
V\u30ec\u30f3\u30aa\u30ea\u30b8\u30ca\u30eb\u66f2
p1615
aI806
aa(lp1616
V\u30cf\u30a4\u30ad\u30e5\u30fc!!
p1617
aI807
aa(lp1618
VBLEACH
p1619
aI808
aa(lp1620
V\u30aa\u30ef\u30bf\u5f0f
p1621
aI809
aa(lp1622
V\u30d6\u30f3\u30d6\u30f3
p1623
aI810
aa(lp1624
V\u5e73\u91ce\u7dbe
p1625
aI811
aa(lp1626
V\u96f6
p1627
aI812
aa(lp1628
VPC\u30a8\u30f3\u30b8\u30f3
p1629
aI813
aa(lp1630
V\u30d0\u30a4\u30aa\u30cf\u30b6\u30fc\u30c95
p1631
aI814
aa(lp1632
V\u30a2\u30ea\u30b9\u30fb\u30de\u30fc\u30ac\u30c8\u30ed\u30a4\u30c9
p1633
aI815
aa(lp1634
VSHINee
p1635
aI816
aa(lp1636
V\u83c5\u91ce\u3088\u3046\u5b50
p1637
aI817
aa(lp1638
V\u30de\u30a8\u30c0
p1639
aI818
aa(lp1640
V\u5317\u671d\u9bae
p1641
aI819
aa(lp1642
V\u30a2\u30cb\u30bd\u30f3\u30e1\u30c9\u30ec\u30fc
p1643
aI820
aa(lp1644
V\u5b50\u732b
p1645
aI821
aa(lp1646
V\u30ec\u30df\u30ea\u30a2\u30fb\u30b9\u30ab\u30fc\u30ec\u30c3\u30c8
p1647
aI822
aa(lp1648
V\u2103-ute
p1649
aI823
aa(lp1650
V\u624b\u66f8\u304dAP\u30d8\u30bf\u30ea\u30a2
p1651
aI824
aa(lp1652
V\u8a00\u8ad6
p1653
aI825
aa(lp1654
VVOCALOID\u30e9\u30f3\u30ad\u30f3\u30b0
p1655
aI826
aa(lp1656
V\u30da\u30eb\u30bd\u30ca\uff14
p1657
aI827
aa(lp1658
V\u5c0f\u91ce\u5742\u660c\u4e5f
p1659
aI828
aa(lp1660
V\u30af\u30ea\u30b9\u30de\u30b9
p1661
aI829
aa(lp1662
V\u30b2\u30fc\u30e0PV
p1663
aI830
aa(lp1664
V\u30d0\u30c8\u30eb\u30d5\u30a3\u30fc\u30eb\u30c9
p1665
aI831
aa(lp1666
V\u30e1\u30eb\u30d6\u30e9
p1667
aI832
aa(lp1668
V\u9802\u4e0a\u5bfe\u6c7a
p1669
aI833
aa(lp1670
V\u30b8\u30d6\u30ea
p1671
aI834
aa(lp1672
V\u30cb\u30b3\u30cb\u30b3\u56fd\u5185\u65c5\u884c
p1673
aI835
aa(lp1674
V\u306a\u305c\u8a55\u4fa1\u3055\u308c\u306a\u3044
p1675
aI836
aa(lp1676
V\u98ef\u52d5\u753b
p1677
aI837
aa(lp1678
VSOUND_VOLTEX
p1679
aI838
aa(lp1680
V\u7f8e\u5c11\u5973
p1681
aI839
aa(lp1682
VG\u30b8\u30a7\u30cd
p1683
aI840
aa(lp1684
V\u30cf\u30ec\u6674\u30ec\u30e6\u30ab\u30a4
p1685
aI841
aa(lp1686
V100\u5206\u9593\u8010\u4e45\u30b7\u30ea\u30fc\u30ba
p1687
aI842
aa(lp1688
V\u91e3\u308a\u52d5\u753b
p1689
aI843
aa(lp1690
VMMD\u7d19\u829d\u5c45
p1691
aI844
aa(lp1692
V\u5fdc\u63f4\u6b4c
p1693
aI845
aa(lp1694
V\u30b7\u30e5\u30fc\u30bf\u30fc\u30db\u30a4\u30db\u30a4
p1695
aI846
aa(lp1696
V\u3051\u3044\u304a\u3093!!
p1697
aI847
aa(lp1698
VCivilization
p1699
aI848
aa(lp1700
V\u30d5\u30eb\u30dc\u30c3\u30b3
p1701
aI849
aa(lp1702
VFallout3
p1703
aI850
aa(lp1704
VOblivion
p1705
aI851
aa(lp1706
V\u5317\u6d77\u9053
p1707
aI852
aa(lp1708
V\u4e2d\u6bd2\u306b\u306a\u308b\u52d5\u753b\u30b7\u30ea\u30fc\u30ba
p1709
aI853
aa(lp1710
VNGC
p1711
aI854
aa(lp1712
V\u30bf\u30a4\u30c8\u30eb\u30db\u30a4\u30db\u30a4
p1713
aI855
aa(lp1714
V\u30c9\u30e9\u30b4\u30f3\u30dc\u30fc\u30ebZ
p1715
aI856
aa(lp1716
V\u6700\u5f8c\u307e\u3067\u898b\u308b\u3079\u304d
p1717
aI857
aa(lp1718
V\u30d5\u30a7\u30b9\u52d5\u753b
p1719
aI858
aa(lp1720
V\u6539\u9020\u30de\u30ea\u30aa
p1721
aI859
aa(lp1722
VMoE
p1723
aI860
aa(lp1724
Vk-pop
p1725
aI861
aa(lp1726
V\u5fc3\u970a
p1727
aI862
aa(lp1728
V\u6238\u677e\u9065
p1729
aI863
aa(lp1730
VFC
p1731
aI864
aa(lp1732
V\u30a2\u30af\u30b7\u30e7\u30f3
p1733
aI865
aa(lp1734
V\u30dd\u30b1\u30e2\u30f3BGM\u30ea\u30f3\u30af
p1735
aI866
aa(lp1736
V\u30c6\u30cb\u30df\u30e5\u30ad\u30e3\u30b9\u30c8
p1737
aI867
aa(lp1738
V\u9ebb\u751f\u592a\u90ce
p1739
aI868
aa(lp1740
VVOCALOID3D\u5316\u8a08\u753b
p1741
aI869
aa(lp1742
VMOD
p1743
aI870
aa(lp1744
V\u7a81\u3063\u8fbc\u307f\u3069\u3053\u308d\u6e80\u8f09
p1745
aI871
aa(lp1746
V\u30de\u30ea\u30aa\u30ab\u30fc\u30c8
p1747
aI872
aa(lp1748
V\u305d\u306e\u767a\u60f3\u306f\u3042\u3063\u305f
p1749
aI873
aa(lp1750
VBad_Apple!!_feat._nomico
p1751
aI874
aa(lp1752
VRKRN
p1753
aI875
aa(lp1754
V\u3086\u3063\u304f\u308a\u5b9f\u6cc1\u30d7\u30ec\u30a4\u6700\u7d42\u56de\u30ea\u30f3\u30af
p1755
aI876
aa(lp1756
V\u9244\u62f3
p1757
aI877
aa(lp1758
V\u5b87\u5b99
p1759
aI878
aa(lp1760
V\u3053\u306e\u767a\u60f3\u306f\u3042\u3063\u305f
p1761
aI879
aa(lp1762
V\u30b2\u30fc\u30e0\u97f3\u697d\u5168\u66f2\u96c6
p1763
aI880
aa(lp1764
V\u9060\u85e4\u6b63\u660e
p1765
aI881
aa(lp1766
VJ\u30ea\u30fc\u30b0
p1767
aI882
aa(lp1768
V\u30cb\u30b3\u30cb\u30b3\u30e9\u30f3\u30ad\u30f3\u30b0
p1769
aI883
aa(lp1770
V\u30df\u30f3\u30b5\u30ac
p1771
aI884
aa(lp1772
V\u6771\u5317\u5730\u65b9\u592a\u5e73\u6d0b\u6c96\u5730\u9707
p1773
aI885
aa(lp1774
V\u30ed\u30b7\u30a2
p1775
aI886
aa(lp1776
V\u5929\u5143\u7a81\u7834\u30b0\u30ec\u30f3\u30e9\u30ac\u30f3
p1777
aI887
aa(lp1778
V\u30d2\u30c6\u30c3\u30de\u30f3\u30ea\u30b9\u30da\u30af\u30c8
p1779
aI888
aa(lp1780
V\u30e1\u30ac\u30c9\u30e9\u30a4\u30d6
p1781
aI889
aa(lp1782
V\u3066\u3063\u3066\u3063\u3066\u30fc
p1783
aI890
aa(lp1784
V\u7d05\u84ee\u306e\u5f13\u77e2
p1785
aI891
aa(lp1786
V\u6d77\u5916\u30a2\u30cb\u30e1
p1787
aI892
aa(lp1788
V\u30c1\u30fc\u30e0\u95a2\u897f
p1789
aI893
aa(lp1790
V\u8ab0\u5f97
p1791
aI894
aa(lp1792
VSIREN
p1793
aI895
aa(lp1794
V\u30d0\u30a4\u30aa\u30cf\u30b6\u30fc\u30c9\uff14
p1795
aI896
aa(lp1796
V\u30a2\u30a4\u30de\u30b9MAD\u51e6\u5973\u4f5c
p1797
aI897
aa(lp1798
V\u30d1\u30ef\u30dd\u30b1
p1799
aI898
aa(lp1800
V\u6df1\u523b\u306a\u30b3\u30e1\u4e0d\u8db3
p1801
aI899
aa(lp1802
V\u30eb\u30fc\u30d7\u63a8\u5968
p1803
aI900
aa(lp1804
V\u30c6\u30a4\u30eb\u30ba\u30a6\u30a3\u30fc\u30d0\u30fc
p1805
aI901
aa(lp1806
VMMD\u30d1\u30f3\u30c4\u30ea\u30f3\u30af
p1807
aI902
aa(lp1808
V\u6ca2\u57ce\u307f\u3086\u304d
p1809
aI903
aa(lp1810
V\u65e9\u898b\u6c99\u7e54
p1811
aI904
aa(lp1812
V\u6226\u95d8\u6a5f
p1813
aI905
aa(lp1814
V\u6d0b\u697d\u4f5c\u696d\u7528BGM
p1815
aI906
aa(lp1816
V\u4e2d\u65e5\u30c9\u30e9\u30b4\u30f3\u30ba
p1817
aI907
aa(lp1818
VMGS4
p1819
aI908
aa(lp1820
V80\u5e74\u4ee3
p1821
aI909
aa(lp1822
V\u604b\u611b\u30b5\u30fc\u30ad\u30e5\u30ec\u30fc\u30b7\u30e7\u30f3
p1823
aI910
aa(lp1824
V\u904e\u5270\u57cb\u6ca1\u52d5\u753b
p1825
aI911
aa(lp1826
V\u30b9\u30de\u30d6\u30e9\uff38
p1827
aI912
aa(lp1828
V\u30cf\u30c3\u30d4\u30fc\u30b7\u30f3\u30bb\u30b5\u30a4\u30b6
p1829
aI913
aa(lp1830
V\u80fd\u767b\u9ebb\u7f8e\u5b50
p1831
aI914
aa(lp1832
V\u307e\u3069\u304b\u2606\u30de\u30ae\u30abMAD\u30ea\u30f3\u30af
p1833
aI915
aa(lp1834
V\u30c0\u30fc\u30af\u30bd\u30a6\u30eb\uff12
p1835
aI916
aa(lp1836
V\u4e16\u754c\u6a39\u306e\u8ff7\u5bae
p1837
aI917
aa(lp1838
V\u30a4\u30e4\u30db\u30f3\u63a8\u5968
p1839
aI918
aa(lp1840
V\u30dd\u30b1\u30e2\u30f3BW\u5bfe\u6226\u30ea\u30f3\u30af
p1841
aI919
aa(lp1842
V\u5909\u614b
p1843
aI920
aa(lp1844
V\u30c0\u30fc\u30af\u30bd\u30a6\u30eb2
p1845
aI921
aa(lp1846
V\u93e1\u97f3\u30ea\u30f3\u30fb\u30ec\u30f3
p1847
aI922
aa(lp1848
V\u95a2\u667a\u4e00
p1849
aI923
aa(lp1850
V\u77f3\u7530\u5f70
p1851
aI924
aa(lp1852
V\u982d\u6587\u5b57D
p1853
aI925
aa(lp1854
V\u795eMAD
p1855
aI926
aa(lp1856
V\u30a4\u30fc\u30b9
p1857
aI927
aa(lp1858
V\u4e0b\u91ce\u7d18
p1859
aI928
aa(lp1860
V\u30a2\u30c3\u30fc\uff01
p1861
aI929
aa(lp1862
V\u6226\u4e89
p1863
aI930
aa(lp1864
V\u540c\u4eba\u30b2\u30fc\u30e0
p1865
aI931
aa(lp1866
V\u3048\u3069\u3055\u3093\u201d\uff06\u3075\u307f\u3044\u3061
p1867
aI932
aa(lp1868
V\u5b50\u5b89\u6b66\u4eba
p1869
aI933
aa(lp1870
V\u3086\u3063\u304f\u308a\u8a55\u4fa1\u3055\u308c\u308b\u3079\u304d
p1871
aI934
aa(lp1872
VFF9
p1873
aI935
aa(lp1874
V\u30d7\u30ec\u30df\u30a2\u30ea\u30fc\u30b0
p1875
aI936
aa(lp1876
V\u4e2d\u6751\u60a0\u4e00
p1877
aI937
aa(lp1878
V\u7267\u5834\u7269\u8a9e
p1879
aI938
aa(lp1880
VAP\u30d8\u30bf\u30ea\u30a2\u6b4c\u3063\u3066\u307f\u305f
p1881
aI939
aa(lp1882
VAMV
p1883
aI940
aa(lp1884
V\u30b8\u30e7\u30b8\u30e7\u306e\u5947\u5999\u306a\u30bd\u30f3\u30b0\u96c6
p1885
aI941
aa(lp1886
V\u3084\u3089\u306a\u3044\u304b
p1887
aI942
aa(lp1888
VEXO
p1889
aI943
aa(lp1890
V\u4f0a\u96c6\u9662\u5149
p1891
aI944
aa(lp1892
VMasterofEpic
p1893
aI945
aa(lp1894
V\u30ab\u30d0\u30fc
p1895
aI946
aa(lp1896
V\u30ca\u30e0\u30b3
p1897
aI947
aa(lp1898
V\u7af9\u9054\u5f69\u5948
p1899
aI948
aa(lp1900
V\u5143\u6c17\u304c\u51fa\u308b\u52d5\u753b
p1901
aI949
aa(lp1902
V\u30db\u30e2\u3068\u5b66\u3076\u30b7\u30ea\u30fc\u30ba
p1903
aI950
aa(lp1904
VSD\u30ac\u30f3\u30c0\u30e0
p1905
aI951
aa(lp1906
V\u304b\u308f\u3044\u3044\u306f\u6b63\u7fa9
p1907
aI952
aa(lp1908
V\u4e9e\u5317\u30cd\u30eb
p1909
aI953
aa(lp1910
VTW
p1911
aI954
aa(lp1912
V\u5f71\u5c71\u30d2\u30ed\u30ce\u30d6
p1913
aI955
aa(lp1914
V\u4eba\u9593\u3084\u3081\u307e\u3057\u305f\u30b7\u30ea\u30fc\u30ba
p1915
aI956
aa(lp1916
V\u6c5d\u306f\u4eba\u72fc\u306a\u308a\u3084\uff1f
p1917
aI957
aa(lp1918
V\u30de\u30d6\u30e9\u30f4
p1919
aI958
aa(lp1920
V\u30ca\u30a4\u30c8\u30fb\u30aa\u30d6\u30fb\u30ca\u30a4\u30c4
p1921
aI959
aa(lp1922
V\u6211\u3005\u306e\u696d\u754c\u3067\u306f\u3054\u8912\u7f8e\u3067\u3059
p1923
aI960
aa(lp1924
V\u30dc\u30af\u30b7\u30f3\u30b0
p1925
aI961
aa(lp1926
V\u30ac\u30f3\u30c0\u30e0vs.\u30ac\u30f3\u30c0\u30e0NEXT
p1927
aI962
aa(lp1928
V\u30ad\u30c1\u30ac\u30a4
p1929
aI963
aa(lp1930
V\u6539\u9020
p1931
aI964
aa(lp1932
V\u30d1\u30c1\u30b9\u30ed\u97f3\u697d
p1933
aI965
aa(lp1934
V\u4e88\u6e2c\u53ef\u80fd\u56de\u907f\u4e0d\u53ef\u80fd
p1935
aI966
aa(lp1936
V\u4eba\u985e\u6ec5\u4ea1\u30b7\u30ea\u30fc\u30ba
p1937
aI967
aa(lp1938
V\u5b87\u5b99\u6226\u8266\u30e4\u30de\u30c8
p1939
aI968
aa(lp1940
V\u30c9\u30ea\u30d5\u30c8
p1941
aI969
aa(lp1942
V\u9b54\u738b\u30a8\u30f3\u30b8\u30a7\u30eb
p1943
aI970
aa(lp1944
VBO2
p1945
aI971
aa(lp1946
V\u30a2\u30cb\u30e1\u97f3\u697d
p1947
aI972
aa(lp1948
VSteam
p1949
aI973
aa(lp1950
VUMVC3
p1951
aI974
aa(lp1952
V\u30c9\u30ea\u30fc\u30e0\u30ad\u30e3\u30b9\u30c8
p1953
aI975
aa(lp1954
V\u5275\u8056\u306e\u30a2\u30af\u30a8\u30ea\u30aa\u30f3
p1955
aI976
aa(lp1956
VCoD:BO
p1957
aI977
aa(lp1958
V\u30ad\u30fc\u30dc\u30fc\u30c9\u30af\u30e9\u30c3\u30b7\u30e3\u30fc
p1959
aI978
aa(lp1960
V\u30ed\u30ea\u30b3\u30f3
p1961
aI979
aa(lp1962
V\u30ab\u30a4\u30b8
p1963
aI980
aa(lp1964
V\u4fdd\u5fd7\u7dcf\u4e00\u6717
p1965
aI981
aa(lp1966
V\u58f0\u771f\u4f3c
p1967
aI982
aa(lp1968
VMichael_Jackson
p1969
aI983
aa(lp1970
V\u30a8\u30f4\u30a1
p1971
aI984
aa(lp1972
V\u304a\u3061\u3083\u3081\u6a5f\u80fd
p1973
aI985
aa(lp1974
V\u5236\u670d
p1975
aI986
aa(lp1976
V\u30be\u30f3\u30d3
p1977
aI987
aa(lp1978
VMMD\u30e2\u30fc\u30b7\u30e7\u30f3\u914d\u5e03\u3042\u308a
p1979
aI988
aa(lp1980
V\u30e9\u30b9\u30dc\u30b9
p1981
aI989
aa(lp1982
V\u30d1\u30f3\u30c4
p1983
aI990
aa(lp1984
V\u30b3\u30d4\u30da
p1985
aI991
aa(lp1986
V\u65b0\u8c37\u826f\u5b50
p1987
aI992
aa(lp1988
V\u30bb\u30fc\u30e9\u30fc\u30e0\u30fc\u30f3
p1989
aI993
aa(lp1990
V\u6620\u753bpart1\u96c6
p1991
aI994
aa(lp1992
VProjectDIVAArcade
p1993
aI995
aa(lp1994
V\u304a\u524d\u304c\u8a00\u3046\u306a
p1995
aI996
aa(lp1996
V\u30d7\u30ec\u30a4\u30e4\u30fc\u64cd\u4f5c
p1997
aI997
aa(lp1998
V\u30dd\u30b1\u30e2\u30f3BW2
p1999
aI998
aa(lp2000
V\u30b9\u30c8\u30ea\u30fc\u30c8\u30d5\u30a1\u30a4\u30bf\u30fc
p2001
aI999
aa(lp2002
V\u30bd\u30fc\u30c9\u30a2\u30fc\u30c8\u30fb\u30aa\u30f3\u30e9\u30a4\u30f3
p2003
aI1000
aa(lp2004
V\u30c1\u30eb\u30ce\u306e\u30d1\u30fc\u30d5\u30a7\u30af\u30c8\u3055\u3093\u3059\u3046\u6559\u5ba4
p2005
aI1001
aa(lp2006
V\u75c5\u9662\u304c\u6765\u3044
p2007
aI1002
aa(lp2008
Vpeercast
p2009
aI1003
aa(lp2010
V\u771f\u30fb\u604b\u59eb\u2020\u7121\u53cc
p2011
aI1004
aa(lp2012
V\u7b11\u6483\u306e\u30e9\u30b9\u30c8
p2013
aI1005
aa(lp2014
V\u4e2d\u306e\u4eba\u7e4b\u304c\u308a
p2015
aI1006
aa(lp2016
V\u30da\u30c0\u30ebMMD
p2017
aI1007
aa(lp2018
VFSS
p2019
aI1008
aa(lp2020
V\u4e88\u544a\u7de8
p2021
aI1009
aa(lp2022
V\u6771\u65b9\u795e\u8d77
p2023
aI1010
aa(lp2024
VTOPANGA
p2025
aI1011
aa(lp2026
V\u6d45\u7530\u771f\u592e
p2027
aI1012
aa(lp2028
V\u30de\u30ea\u30aa\u30ab\u30fc\u30c88
p2029
aI1013
aa(lp2030
V\u9b54\u6cd5\u5c11\u5973\u30ea\u30ea\u30ab\u30eb\u306a\u306e\u306f
p2031
aI1014
aa(lp2032
V\u30aa\u30ea\u30b8\u30ca\u30eb\u66f2
p2033
aI1015
aa(lp2034
VALI_PROJECT
p2035
aI1016
aa(lp2036
V\u304d\u304d\u3044\u308b\u30df\u30af\u3046\u305f
p2037
aI1017
aa(lp2038
V\u6226\u8eca
p2039
aI1018
aa(lp2040
V\u30de\u30ad\u30b7\u30de\u30e0\u30b6\u30db\u30eb\u30e2\u30f3
p2041
aI1019
aa(lp2042
V\u96fb\u6ce2\u30bd\u30f3\u30b0
p2043
aI1020
aa(lp2044
V\u8ab0\u5f97\u52d5\u753b
p2045
aI1021
aa(lp2046
V\u30c6\u30af\u30ce
p2047
aI1022
aa(lp2048
V\u5927\u795e
p2049
aI1023
aa(lp2050
VFC\u97f3\u6e90
p2051
aI1024
aa(lp2052
V\u6b4c\u3063\u3066\u307f\u308d
p2053
aI1025
aa(lp2054
V\u6deb\u5922\u672c\u7de8\u30ea\u30f3\u30af
p2055
aI1026
aa(lp2056
VAIR
p2057
aI1027
aa(lp2058
V\u6771\u65b9\u65e7\u4f5c
p2059
aI1028
aa(lp2060
V\u7dcf\u5408\u683c\u95d8\u6280
p2061
aI1029
aa(lp2062
VBUMPOFCHICKEN
p2063
aI1030
aa(lp2064
V\u65e5\u672c
p2065
aI1031
aa(lp2066
V\u6d12\u843d\u6016
p2067
aI1032
aa(lp2068
VULTIMATE_MARVEL_VS._CAPCOM_3
p2069
aI1033
aa(lp2070
VGGXXAC
p2071
aI1034
aa(lp2072
V\u30a6\u30e1\u30cf\u30e9
p2073
aI1035
aa(lp2074
V\u795e
p2075
aI1036
aa(lp2076
V\u7206\u4e73
p2077
aI1037
aa(lp2078
V\u30c1\u30e3\u30c3\u30c8
p2079
aI1038
aa(lp2080
V\u30c8\u30e9\u30a6\u30de
p2081
aI1039
aa(lp2082
V\u3053\u308c\u304c\u3084\u308a\u305f\u304b\u3063\u305f\u3060\u3051\u3060\u308d\u30b7\u30ea\u30fc\u30ba
p2083
aI1040
aa(lp2084
V\u30a8\u30ed\u30b2\u30bd\u30f3\u30b0\u30e1\u30c9\u30ec\u30fc
p2085
aI1041
aa(lp2086
V\u30dd\u30b1\u30e2\u30f3BW2\u5bfe\u6226\u30ea\u30f3\u30af
p2087
aI1042
aa(lp2088
V\u30b4\u30fc\u30eb\u30c7\u30f3\u30dc\u30f3\u30d0\u30fc
p2089
aI1043
aa(lp2090
V\u30e1\u30c0\u30eb\u30b2\u30fc\u30e0
p2091
aI1044
aa(lp2092
V\u30c1\u30e3\u30fc\u7814MAD
p2093
aI1045
aa(lp2094
V\u661f\u9593\u98db\u884c
p2095
aI1046
aa(lp2096
V\u65e5\u672c\u8a9e\u5b57\u5e55\u306e\u6d0b\u697d
p2097
aI1047
aa(lp2098
V\u30c9\u30a4\u30c4
p2099
aI1048
aa(lp2100
V\u8b0e\u306e\u75be\u8d70\u611f
p2101
aI1049
aa(lp2102
VRED_ZONE
p2103
aI1050
aa(lp2104
VBG\u2606\u3048\u3080
p2105
aI1051
aa(lp2106
V\u30ca\u30eb\u30c8
p2107
aI1052
aa(lp2108
VR&amp;B
p2109
aI1053
aa(lp2110
V\u75db\u8eca
p2111
aI1054
aa(lp2112
V\u30dd\u30eb\u30ce\u30b0\u30e9\u30d5\u30a3\u30c6\u30a3
p2113
aI1055
aa(lp2114
VCoD:BO2
p2115
aI1056
aa(lp2116
V\u30a2\u30ab\u30da\u30e9
p2117
aI1057
aa(lp2118
VVC\u914d\u4fe1\u30bd\u30d5\u30c8
p2119
aI1058
aa(lp2120
V\u653e\u8ab2\u5f8c\u30c6\u30a3\u30fc\u30bf\u30a4\u30e0
p2121
aI1059
aa(lp2122
V\u30df\u30e5\u30fc\u30b8\u30ab\u30eb
p2123
aI1060
aa(lp2124
VSoundHorizon
p2125
aI1061
aa(lp2126
VUK
p2127
aI1062
aa(lp2128
V\u30d9\u30b8\u30fc\u30bf
p2129
aI1063
aa(lp2130
V\u30c8\u30e9\u30f3\u30b9
p2131
aI1064
aa(lp2132
V\u6d0b\u30b2\u30fc
p2133
aI1065
aa(lp2134
VA\u5217\u8eca\u3067\u884c\u3053\u3046
p2135
aI1066
aa(lp2136
V\u3086\u3063\u304f\u308a\u3057\u3066\u3044\u3063\u3066\u306d\uff01\uff01\uff01
p2137
aI1067
aa(lp2138
VVOCALOID\u6bbf\u5802\u5165\u308a
p2139
aI1068
aa(lp2140
V\u30b0\u30eb\u30e1\u30ec\u30fc\u30b9
p2141
aI1069
aa(lp2142
V\u30b9\u30bf\u30fc\u30a6\u30a9\u30fc\u30ba
p2143
aI1070
aa(lp2144
V\u8d85\u753b\u8cea
p2145
aI1071
aa(lp2146
V\u5bb6\u5ead\u6559\u5e2b\u30d2\u30c3\u30c8\u30de\u30f3REBORN!
p2147
aI1072
aa(lp2148
VSKE48
p2149
aI1073
aa(lp2150
V\u30d5\u30a3\u30ae\u30e5\u30a2
p2151
aI1074
aa(lp2152
V\u3059\u304e\u3084\u307e\u3053\u3046\u3044\u3061
p2153
aI1075
aa(lp2154
V\u30c6\u30a4\u30eb\u30ba\u30aa\u30d6\u30b8\u30a2\u30d3\u30b9
p2155
aI1076
aa(lp2156
V\u30ad\u30f3\u8089\u30de\u30f3
p2157
aI1077
aa(lp2158
V\u5973\u5b50\u9ad8\u751f
p2159
aI1078
aa(lp2160
V\u6a5f\u52d5\u6226\u58eb\u30ac\u30f3\u30c0\u30e0SEED_DESTINY
p2161
aI1079
aa(lp2162
V\u7259\u72fc
p2163
aI1080
aa(lp2164
V\u30cb\u30b3\u30cb\u30b3\u793e\u4f1a\u79d1\u898b\u5b66
p2165
aI1081
aa(lp2166
V\u30d5\u30e9\u30f3\u30c9\u30fc\u30eb\u30fb\u30b9\u30ab\u30fc\u30ec\u30c3\u30c8
p2167
aI1082
aa(lp2168
V\u30dd\u30b1\u30c3\u30c8\u30e2\u30f3\u30b9\u30bf\u30fc
p2169
aI1083
aa(lp2170
V\uff2d\uff35\uff27\uff25\uff2e
p2171
aI1084
aa(lp2172
V\u97f3\u30d5\u30a7\u30c1
p2173
aI1085
aa(lp2174
V\u30b8\u30e3\u30ba
p2175
aI1086
aa(lp2176
V\u5e7b\u60f3\u6c34\u6ef8\u4f1d
p2177
aI1087
aa(lp2178
V\u30ac\u30f3\u30aa\u30f3
p2179
aI1088
aa(lp2180
VTalesWeaver
p2181
aI1089
aa(lp2182
VEXVS\u5916\u90e8\u51fa\u529b
p2183
aI1090
aa(lp2184
V\u77e5\u308c\u3070\u77e5\u308b\u307b\u3069\u5acc\u3044\u306b\u306a\u308b\u56fd
p2185
aI1091
aa(lp2186
V\u3068\u3089\u30c9\u30e9\uff01
p2187
aI1092
aa(lp2188
V\u904a\u622f\u738bMAD
p2189
aI1093
aa(lp2190
VMW3
p2191
aI1094
aa(lp2192
V\u4e95\u4e0a\u9ebb\u91cc\u5948
p2193
aI1095
aa(lp2194
VQMA
p2195
aI1096
aa(lp2196
VSNK
p2197
aI1097
aa(lp2198
V\u5b54\u660e\u306e\u7f60
p2199
aI1098
aa(lp2200
V\u9b3c\u755c\u773c\u93e1
p2201
aI1099
aa(lp2202
V\u30ef\u30f3\u30c0\u30fc\u30e9\u30f3\u30c9\u30a6\u30a9\u30fc\u30ba
p2203
aI1100
aa(lp2204
VSuperJunior
p2205
aI1101
aa(lp2206
V\u9b3c\u706f\u306e\u51b7\u5fb9
p2207
aI1102
aa(lp2208
V\u7a7a\u306e\u8ecc\u8de1
p2209
aI1103
aa(lp2210
V\u30b2\u30fc\u30e0ED
p2211
aI1104
aa(lp2212
V\u30aa\u30fc\u30b1\u30b9\u30c8\u30e9
p2213
aI1105
aa(lp2214
VAngel_Beats!
p2215
aI1106
aa(lp2216
V\u9ce5\u6d77\u6d69\u8f14
p2217
aI1107
aa(lp2218
V\u8acf\u8a2a\u90e8\u9806\u4e00
p2219
aI1108
aa(lp2220
V\u30df\u30ce\u30eb
p2221
aI1109
aa(lp2222
V\u690d\u677e\u4f38\u592b
p2223
aI1110
aa(lp2224
V\u9ed2\u5b50\u306e\u5353\u30b2\u30ea\u30f3\u30af
p2225
aI1111
aa(lp2226
V\u6df1\u523b\u306a\u7d20\u6750\u4e0d\u8db3
p2227
aI1112
aa(lp2228
VCoD4
p2229
aI1113
aa(lp2230
V\u30c9\u30e9\u30b4\u30f3\u30cd\u30b9\u30c8
p2231
aI1114
aa(lp2232
V\u30a2\u30b3\u30ae
p2233
aI1115
aa(lp2234
V\u5927\u6cc9\u6d0b
p2235
aI1116
aa(lp2236
V\u307b\u306e\u307c\u306e\u795e\u793e\u30a2\u30ec\u30f3\u30b8
p2237
aI1117
aa(lp2238
V\u98a8\uff08\u3075\u3046\uff09
p2239
aI1118
aa(lp2240
V90\u5e74\u4ee3
p2241
aI1119
aa(lp2242
V\u9244\u62f36BR
p2243
aI1120
aa(lp2244
V\u54b2-Saki-
p2245
aI1121
aa(lp2246
V\u6a5f\u52d5\u6226\u58eb\u30ac\u30f3\u30c0\u30e0
p2247
aI1122
aa(lp2248
V2828\u52d5\u753b
p2249
aI1123
aa(lp2250
V\u904a\u622f\u738bGX
p2251
aI1124
aa(lp2252
V\u30cf\u30e4\u30c6\u306e\u3054\u3068\u304f\uff01
p2253
aI1125
aa(lp2254
VCoD:MW3
p2255
aI1126
aa(lp2256
V\u4f50\u5009\u7dbe\u97f3
p2257
aI1127
aa(lp2258
V\u4f50\u85e4\u5229\u5948
p2259
aI1128
aa(lp2260
VDTM
p2261
aI1129
aa(lp2262
V\u826f\u8abf\u6559
p2263
aI1130
aa(lp2264
V\u304a\u304d\u3089\u304f\u30ea\u30f3\u30c1
p2265
aI1131
aa(lp2266
V\u843d\u8a9e
p2267
aI1132
aa(lp2268
V\u826f\u4f5c\u6d6e\u4e0a\u30ea\u30f3\u30af
p2269
aI1133
aa(lp2270
V\u30a2\u30a4\u30c9\u30eb\u30de\u30b9\u30bf\u30fc\uff12
p2271
aI1134
aa(lp2272
V\u3068\u304d\u3081\u304d\u30e1\u30e2\u30ea\u30a2\u30eb
p2273
aI1135
aa(lp2274
V\u30c1\u30fc\u30c8\u30d0\u30b0\u52d5\u753b
p2275
aI1136
aa(lp2276
V\u6771\u65b9\u9271\u5de5\u82b8
p2277
aI1137
aa(lp2278
V\u685c\u4e95\u8aa0
p2279
aI1138
aa(lp2280
V\u9059\u304b\u306a\u308b\u6642\u7a7a\u306e\u4e2d\u3067
p2281
aI1139
aa(lp2282
VFF4
p2283
aI1140
aa(lp2284
V\u30b8\u30e7\u30b8\u30e7\u306e\u5947\u5999\u306a\u5192\u967a_\u30aa\u30fc\u30eb\u30b9\u30bf\u30fc\u30d0\u30c8\u30eb
p2285
aI1141
aa(lp2286
VOVA
p2287
aI1142
aa(lp2288
V\u571f\u65b9\u5341\u56db\u90ce
p2289
aI1143
aa(lp2290
Vchiptune
p2291
aI1144
aa(lp2292
Vyou
p2293
aI1145
aa(lp2294
V\u59b9
p2295
aI1146
aa(lp2296
V\u4e21\u58f0\u985e
p2297
aI1147
aa(lp2298
V\u8c37\u5c71\u7d00\u7ae0
p2299
aI1148
aa(lp2300
V\u30bb\u30ac\u306e\u672c\u6c17
p2301
aI1149
aa(lp2302
VMMD-PV
p2303
aI1150
aa(lp2304
V\u30b2\u30c3\u30c0\u30f3
p2305
aI1151
aa(lp2306
V\u30a4\u30c1\u30ed\u30fc
p2307
aI1152
aa(lp2308
V\u753b\u50cf\u96c6
p2309
aI1153
aa(lp2310
V\u697d\u8b5c
p2311
aI1154
aa(lp2312
V\u30c7\u30e5\u30e9\u30e9\u30e9!!
p2313
aI1155
aa(lp2314
V\u30ac\u30c1\u30db\u30e2
p2315
aI1156
aa(lp2316
V\u6eb6\u63a5\u8077\u4eba
p2317
aI1157
aa(lp2318
V80's
p2319
aI1158
aa(lp2320
V\u5353\u30b2M@ster
p2321
aI1159
aa(lp2322
Vonly_my_railgun
p2323
aI1160
aa(lp2324
V\u6d45\u91ce\u771f\u6f84
p2325
aI1161
aa(lp2326
V\u30df\u30ea\u3057\u3089\u30b7\u30ea\u30fc\u30ba
p2327
aI1162
aa(lp2328
V\u9752\u9b3c
p2329
aI1163
aa(lp2330
VAP\u30d8\u30bf\u30ea\u30a2\u5144\u3061\u3083\u3093\u30ea\u30f3\u30af
p2331
aI1164
aa(lp2332
V\u9769\u65b0
p2333
aI1165
aa(lp2334
V\u96fb\u5b50\u30c9\u30e9\u30c3\u30b0
p2335
aI1166
aa(lp2336
V\u30c7\u30b9\u30ce\u30fc\u30c8
p2337
aI1167
aa(lp2338
V\u65b0\u65e5\u672c\u30d7\u30ed\u30ec\u30b9
p2339
aI1168
aa(lp2340
V\u304c\u3093\u3070\u308c\u30b4\u30a8\u30e2\u30f3
p2341
aI1169
aa(lp2342
V\u3053\u3063\u3061\u304f\u3093\u306a
p2343
aI1170
aa(lp2344
V\u624b\u63cf\u304d
p2345
aI1171
aa(lp2346
VGTASA
p2347
aI1172
aa(lp2348
V\u96a0\u308c\u305f\u30dc\u30ab\u30ed\u540d\u66f2
p2349
aI1173
aa(lp2350
V\u30d0\u30f3\u30d6\u30e9
p2351
aI1174
aa(lp2352
VCoD
p2353
aI1175
aa(lp2354
V\u9234\u6728\u9054\u592e
p2355
aI1176
aa(lp2356
V\u5922\u306e\u5171\u6f14
p2357
aI1177
aa(lp2358
V\u5e7c\u5973
p2359
aI1178
aa(lp2360
V\u4e3b\u30b3\u30e1
p2361
aI1179
aa(lp2362
V\u30a8\u30ad\u30d7\u30ed
p2363
aI1180
aa(lp2364
V\u698a\u539f\u3086\u3044
p2365
aI1181
aa(lp2366
V\u53cc\u6d77\u771f\u7f8e
p2367
aI1182
aa(lp2368
V\u30b3\u30f3\u30c8
p2369
aI1183
aa(lp2370
VREFLEC_BEAT
p2371
aI1184
aa(lp2372
VVIPRPG
p2373
aI1185
aa(lp2374
VTda\u5f0fAppend\u30df\u30af
p2375
aI1186
aa(lp2376
V\u6f2b\u753b
p2377
aI1187
aa(lp2378
V\u91d1\u7530\u670b\u5b50
p2379
aI1188
aa(lp2380
V\u4e8b\u6545
p2381
aI1189
aa(lp2382
V\u30df\u30eb\u30ad\u30a3\u30db\u30fc\u30e0\u30ba
p2383
aI1190
aa(lp2384
V\u4f0a\u85e4\u304b\u306a\u6075
p2385
aI1191
aa(lp2386
V\u7d19\u829d\u5c45\u30af\u30ea\u30a8\u30fc\u30bf\u30fc
p2387
aI1192
aa(lp2388
VLat\u5f0f\u30df\u30af
p2389
aI1193
aa(lp2390
VMGS3
p2391
aI1194
aa(lp2392
VFF13
p2393
aI1195
aa(lp2394
V\u304a\u83d3\u5b50\u4f5c\u308a
p2395
aI1196
aa(lp2396
V\u30c9\u30e9\u30a4\u30d6
p2397
aI1197
aa(lp2398
VAV
p2399
aI1198
aa(lp2400
V\u690e\u540d\u6797\u6a8e
p2401
aI1199
aa(lp2402
V\u30b9\u30de\u30a4\u30eb\u30d7\u30ea\u30ad\u30e5\u30a2\uff01
p2403
aI1200
aa(lp2404
V\u68b6\u6d66\u7531\u8a18
p2405
aI1201
aa(lp2406
V\u306d\u3053
p2407
aI1202
aa(lp2408
V\u30d4\u30c3\u30c1\u5909\u66f4\u3067\u25cf\u25cf\u4f3c\u30b7\u30ea\u30fc\u30ba
p2409
aI1203
aa(lp2410
V\u53cc\u6d77\u4e9c\u7f8e
p2411
aI1204
aa(lp2412
VfripSide
p2413
aI1205
aa(lp2414
VNNI\u30aa\u30ea\u30b8\u30ca\u30eb\u66f2
p2415
aI1206
aa(lp2416
V\u30c6\u30a4\u30eb\u30ba\u30aa\u30d6\u30f4\u30a7\u30b9\u30da\u30ea\u30a2
p2417
aI1207
aa(lp2418
V\u60a0\u6728\u78a7
p2419
aI1208
aa(lp2420
V\u306a\u304b\u3088\u3057\u3063\u304f\u3059
p2421
aI1209
aa(lp2422
V\u8056\u6226\u306e\u7cfb\u8b5c
p2423
aI1210
aa(lp2424
V\u3084\u3063\u3066\u307f\u305f
p2425
aI1211
aa(lp2426
V\uff83\uff70\uff9a\uff6f\uff83\uff70
p2427
aI1212
aa(lp2428
V\u3086\u3063\u304f\u308a\u5287\u5834
p2429
aI1213
aa(lp2430
V\u653b\u6bbb\u6a5f\u52d5\u968a
p2431
aI1214
aa(lp2432
V\u30d1\u30f3\u30c4\u306e\u898b\u3048\u308b\u30b2\u30fc\u30e0
p2433
aI1215
aa(lp2434
VZENKAI\u30d0\u30c8\u30eb\u30ed\u30a4\u30e4\u30eb
p2435
aI1216
aa(lp2436
V\u30e1\u30b0\u30c3\u30dd\u30a4\u30c9
p2437
aI1217
aa(lp2438
VbeatmaniaIIDX
p2439
aI1218
aa(lp2440
V\u30b4\u30b8\u30e9
p2441
aI1219
aa(lp2442
VMr.Children
p2443
aI1220
aa(lp2444
V\u5e7b\u60f3\u5165\u308a
p2445
aI1221
aa(lp2446
VKARA
p2447
aI1222
aa(lp2448
V\u592a\u9f13\u3055\u3093\u6b21\u90ce
p2449
aI1223
aa(lp2450
V\u5ca1\u672c\u4fe1\u5f66
p2451
aI1224
aa(lp2452
V\u5b9f\u6cc1\u30d7\u30ec\u30a4\u5358\u767a\u30ea\u30f3\u30af
p2453
aI1225
aa(lp2454
V\u61d0\u30e1\u30ed
p2455
aI1226
aa(lp2456
Voblivion
p2457
aI1227
aa(lp2458
V\u30a2\u30ab\u30ae
p2459
aI1228
aa(lp2460
V\u30bf\u30a4\u30e0\u30a2\u30bf\u30c3\u30af
p2461
aI1229
aa(lp2462
V\u4e94\u4e95\u30c1\u30e3\u683c\u30b2\u30fc\u52d5\u753b
p2463
aI1230
aa(lp2464
VL'Arc~en~Ciel
p2465
aI1231
aa(lp2466
V\u30e9\u30fc\u30e1\u30f3\u30bf\u30a4\u30de\u30fc
p2467
aI1232
aa(lp2468
V\u97f3\u7a0b\u304c\u6765\u3044
p2469
aI1233
aa(lp2470
V\u73fe\u4ee3\u5165\u308a\u30b7\u30ea\u30fc\u30ba
p2471
aI1234
aa(lp2472
V\u30d6\u30eb\u30de
p2473
aI1235
aa(lp2474
V\u30ab\u30b9\u30bf\u30e0\u30b5\u30f3\u30c8\u30e9\u7528
p2475
aI1236
aa(lp2476
VLOV
p2477
aI1237
aa(lp2478
V\u6cbc\u5009\u611b\u7f8e
p2479
aI1238
aa(lp2480
V\u4e9c\u7f8e
p2481
aI1239
aa(lp2482
VEDF
p2483
aI1240
aa(lp2484
V\u30a2\u30a4\u30c9\u30eb\u30de\u30b9\u30bf\u30fc_\u30ef\u30f3\u30d5\u30a9\u30fc\u30aa\u30fc\u30eb
p2485
aI1241
aa(lp2486
V\u3044\u3044\u5927\u4eba\u9054\uff08\u30b2\u30fc\u30e0\u5b9f\u6cc1\u8005\uff09
p2487
aI1242
aa(lp2488
V\u5439_\u3063_\u5207_\u308c_\u305f
p2489
aI1243
aa(lp2490
V\uff23\uff2d
p2491
aI1244
aa(lp2492
V\u3086\u3063\u304f\u308a\u30dc\u30a4\u30b9
p2493
aI1245
aa(lp2494
V\u30c6\u30e9\u30ea\u30a2
p2495
aI1246
aa(lp2496
Vskyrim
p2497
aI1247
aa(lp2498
V\u5409\u5e7e\u4e09
p2499
aI1248
aa(lp2500
V\u30a8\u30f3\u30c7\u30a3\u30f3\u30b0
p2501
aI1249
aa(lp2502
V\u3082\u3082\u3044\u308d\u30af\u30ed\u30fc\u30d0\u30fcZ
p2503
aI1250
aa(lp2504
V\u7537\u306e\u5a18
p2505
aI1251
aa(lp2506
VHUNTERHUNTER
p2507
aI1252
aa(lp2508
V\u8150\u5411\u3051
p2509
aI1253
aa(lp2510
V\u3068\u304d\u3069
p2511
aI1254
aa(lp2512
V\u30df\u30af\u30ce\u30dd\u30c3\u30d7
p2513
aI1255
aa(lp2514
V\u65e5\u672c\u8a9e\u30e9\u30c3\u30d7
p2515
aI1256
aa(lp2516
V\u3082\u3082\u30af\u30ed
p2517
aI1257
aa(lp2518
V\u68ee\u5ddd\u667a\u4e4b
p2519
aI1258
aa(lp2520
V\u707c\u773c\u306e\u30b7\u30e3\u30ca
p2521
aI1259
aa(lp2522
V\u7acb\u6d77
p2523
aI1260
aa(lp2524
VUVERworld
p2525
aI1261
aa(lp2526
V\u30de\u30c8\u30ea\u30e7\u30b7\u30ab
p2527
aI1262
aa(lp2528
V\u30bc\u30ce\u30d6\u30ec\u30a4\u30c9
p2529
aI1263
aa(lp2530
V\u6f14\u3058\u3066\u307f\u305f
p2531
aI1264
aa(lp2532
V\u9752\u5b66
p2533
aI1265
aa(lp2534
V\u30da\u30fc\u30d1\u30fc\u30de\u30f3
p2535
aI1266
aa(lp2536
VCOD
p2537
aI1267
aa(lp2538
VFF8
p2539
aI1268
aa(lp2540
VKYM
p2541
aI1269
aa(lp2542
V\u30cf\u30eb\u30d2
p2543
aI1270
aa(lp2544
V\u30de\u30a4\u30ea\u30c8\u30eb\u30dd\u30cb\u30fc
p2545
aI1271
aa(lp2546
V\u30df\u30cb\u56db\u99c6
p2547
aI1272
aa(lp2548
V\u7d05\u7f8e\u9234
p2549
aI1273
aa(lp2550
V\u68ee\u4e45\u4fdd\u7965\u592a\u90ce
p2551
aI1274
aa(lp2552
V\u840c\u3048\u3063\u5a18\u3082\u3093\u3059\u305f\u3041
p2553
aI1275
aa(lp2554
V\u518d\u73feMMD
p2555
aI1276
aa(lp2556
V\u30b5\u30a4\u30ec\u30f3\u30c8\u30d2\u30eb
p2557
aI1277
aa(lp2558
V\u68b6\u88d5\u8cb4
p2559
aI1278
aa(lp2560
V\u5b9f\u6cc1\u8eca\u8f09\u52d5\u753b
p2561
aI1279
aa(lp2562
V\u30ed\u30dc\u30c3\u30c8
p2563
aI1280
aa(lp2564
V\u9b5a\u91e3\u308a
p2565
aI1281
aa(lp2566
V\u304a\u305d\u677e\u3055\u3093
p2567
aI1282
aa(lp2568
V\u4e2d\u539f\u9ebb\u8863
p2569
aI1283
aa(lp2570
V\u6771\u65b9\u52d5\u753bBGM\u652f\u63f4
p2571
aI1284
aa(lp2572
V\u30d7\u30ea\u30ad\u30e5\u30a2MAD
p2573
aI1285
aa(lp2574
V\u6d0b\u697d\u540d\u66f2\u96c6
p2575
aI1286
aa(lp2576
V\u30de\u30b4
p2577
aI1287
aa(lp2578
V\u30cb\u30b3\u30cb\u30b3\u52d5\u753b\u6d41\u661f\u7fa4
p2579
aI1288
aa(lp2580
V\u30bc\u30ed\u306e\u4f7f\u3044\u9b54
p2581
aI1289
aa(lp2582
V\u30dc\u30ab\u30ed\u30d0\u30e9\u30fc\u30c9
p2583
aI1290
aa(lp2584
V\u30d0\u30c8\u30aa\u30da
p2585
aI1291
aa(lp2586
V\u30a2\u30a4\u30c9\u30eb\u30de\u30b9\u30bf\u30fc\u30df\u30ea\u30aa\u30f3\u30e9\u30a4\u30d6\uff01
p2587
aI1292
aa(lp2588
V\u30ed\u30c3\u30af\u30de\u30f3\u30a8\u30b0\u30bc
p2589
aI1293
aa(lp2590
VLamb.
p2591
aI1294
aa(lp2592
V\u30de\u30a4\u30e0\u30de\u30a4\u30e0
p2593
aI1295
aa(lp2594
VAC
p2595
aI1296
aa(lp2596
V\u96fb\u738b
p2597
aI1297
aa(lp2598
V\u624b\u66f8\u304d\u30c6\u30cb\u30b9
p2599
aI1298
aa(lp2600
VACV
p2601
aI1299
aa(lp2602
VTPS
p2603
aI1300
aa(lp2604
V\u6392\u6c17\u97f3\u30b7\u30ea\u30fc\u30ba
p2605
aI1301
aa(lp2606
VSCE
p2607
aI1302
aa(lp2608
V\u3082\u3053\u3046
p2609
aI1303
aa(lp2610
V\u30e1\u30bf\u30eb\u30ae\u30a2\u30bd\u30ea\u30c3\u30c9
p2611
aI1304
aa(lp2612
V3D\u30ab\u30b9\u30bf\u30e0\u5c11\u5973
p2613
aI1305
aa(lp2614
V\u307b\u306e\u307c\u306e\u795e\u793e
p2615
aI1306
aa(lp2616
V\u30d7\u30ed\u30b0\u30ec
p2617
aI1307
aa(lp2618
V\u30aa\u30fc\u30eb\u30ca\u30a4\u30c8\u30cb\u30c3\u30dd\u30f3
p2619
aI1308
aa(lp2620
V\u30b7\u30e0\u6771\u65b9
p2621
aI1309
aa(lp2622
V\u4f5c\u696d\u7528
p2623
aI1310
aa(lp2624
V\u30b5\u80f8\u30db\u30a4\u30db\u30a4
p2625
aI1311
aa(lp2626
V\u90a6\u697d\u540d\u66f2\u96c6
p2627
aI1312
aa(lp2628
V\u5f3e\u304d\u8a9e\u308a
p2629
aI1313
aa(lp2630
Vnovelsm@ster
p2631
aI1314
aa(lp2632
V\u65e5\u520aVOCALOID\u30e9\u30f3\u30ad\u30f3\u30b0
p2633
aI1315
aa(lp2634
V\u67f4\u72ac
p2635
aI1316
aa(lp2636
V\u30a8\u30ec\u30f3\u30fb\u30a4\u30a7\u30fc\u30ac\u30fc
p2637
aI1317
aa(lp2638
V\u6c96\u7e04
p2639
aI1318
aa(lp2640
VBerryz\u5de5\u623f
p2641
aI1319
aa(lp2642
V\u304b\u308f\u3044\u3044
p2643
aI1320
aa(lp2644
V\u30b0\u30e9\u30f3\u30c4\u30fc\u30ea\u30b9\u30e2
p2645
aI1321
aa(lp2646
VMH4
p2647
aI1322
aa(lp2648
V\u4ffa\u306e\u59b9\u304c\u3053\u3093\u306a\u306b\u53ef\u611b\u3044\u308f\u3051\u304c\u306a\u3044
p2649
aI1323
aa(lp2650
V\u7acb\u4f53\u97f3\u97ff
p2651
aI1324
aa(lp2652
V\u30dc\u30f3\u30d0\u30fc\u30de\u30f3
p2653
aI1325
aa(lp2654
V\u5f93\u8ecd\u5148\u8f29\u30b7\u30ea\u30fc\u30ba
p2655
aI1326
aa(lp2656
V\u5168\u90e8\u4ffa
p2657
aI1327
aa(lp2658
ViM@S\u30ce\u30fc\u30de\u30ebPV
p2659
aI1328
aa(lp2660
V\u624b\u63cf\u304dMAD
p2661
aI1329
aa(lp2662
V\u30aa\u30ea\u30b8\u30ca\u30eb
p2663
aI1330
aa(lp2664
V\u30de\u30af\u30ed\u30b9
p2665
aI1331
aa(lp2666
V\u7f6e\u9b8e\u9f8d\u592a\u90ce
p2667
aI1332
aa(lp2668
V\u30a8\u30ec\u30af\u30c8\u30ed\u30cb\u30ab
p2669
aI1333
aa(lp2670
V\u62e1\u6563\u5e0c\u671b
p2671
aI1334
aa(lp2672
V\u6771\u65b9GTA
p2673
aI1335
aa(lp2674
VKAITO\u30aa\u30ea\u30b8\u30ca\u30eb\u66f2
p2675
aI1336
aa(lp2676
VFFT
p2677
aI1337
aa(lp2678
V\u9283
p2679
aI1338
aa(lp2680
V\u30ac\u30f3\u30c0\u30e0OO\u2010OPMAD\u30ea\u30f3\u30af
p2681
aI1339
aa(lp2682
VDQN
p2683
aI1340
aa(lp2684
V\u95a2\u4fca\u5f66
p2685
aI1341
aa(lp2686
V\u9577\u9580\u6709\u5e0c
p2687
aI1342
aa(lp2688
V\u3080\u305b\u308b
p2689
aI1343
aa(lp2690
V\u305f\u3053\u30eb\u30ab
p2691
aI1344
aa(lp2692
V\u962a\u795e\u30bf\u30a4\u30ac\u30fc\u30b9
p2693
aI1345
aa(lp2694
VMH3
p2695
aI1346
aa(lp2696
V\u753b\u50cf
p2697
aI1347
aa(lp2698
VACfA
p2699
aI1348
aa(lp2700
V\u4f1a\u8a71\u3064\u304d\u6226\u56fd\u5927\u6226
p2701
aI1349
aa(lp2702
V\u521d\u97f3\u30df\u30af-ProjectDIVA-2nd
p2703
aI1350
aa(lp2704
VN64
p2705
aI1351
aa(lp2706
VFE
p2707
aI1352
aa(lp2708
V\u6771\u65b9\uff2d\uff2d\uff24
p2709
aI1353
aa(lp2710
V\u82e5\u672c
p2711
aI1354
aa(lp2712
Vlov
p2713
aI1355
aa(lp2714
V\u30a2\u30f3\u30a4\u30f3\u30b9\u30c8\u30fc\u30eb
p2715
aI1356
aa(lp2716
V\u3072\u3060\u307e\u308a\u30b9\u30b1\u30c3\u30c1
p2717
aI1357
aa(lp2718
V\u4e59\u5973\u30b2\u30fc\u30e0
p2719
aI1358
aa(lp2720
V\u3067\u3063\u3066\u3044\u3046
p2721
aI1359
aa(lp2722
VMMD\u9ed2\u30d0\u30b9
p2723
aI1360
aa(lp2724
V\u82e5\u672c\u898f\u592b
p2725
aI1361
aa(lp2726
V\u304d\u3057\u3081\u3093
p2727
aI1362
aa(lp2728
V\u77f3\u5ddd\u5178\u884c
p2729
aI1363
aa(lp2730
V\u6226\u95d8\u66f2
p2731
aI1364
aa(lp2732
V\u624b\u66f8\u304d\u91d1\u9b42
p2733
aI1365
aa(lp2734
V\u6771\u4eac\u4e8b\u5909
p2735
aI1366
aa(lp2736
V\u5d50
p2737
aI1367
aa(lp2738
VARIA
p2739
aI1368
aa(lp2740
V\u89e3\u8aac\u52d5\u753b
p2741
aI1369
aa(lp2742
V\u658e\u85e4\u5343\u548c
p2743
aI1370
aa(lp2744
VPV\u3064\u3051\u3066\u307f\u305f
p2745
aI1371
aa(lp2746
V\u30b9\u30d4\u30c3\u30c4
p2747
aI1372
aa(lp2748
V\u3072\u3050\u3089\u3057MAD
p2749
aI1373
aa(lp2750
V\u5c0f\u6e05\u6c34\u4e9c\u7f8e
p2751
aI1374
aa(lp2752
V\u7537\u5973
p2753
aI1375
aa(lp2754
V\u9ad8\u57a3\u5f69\u967d
p2755
aI1376
aa(lp2756
Vsims3
p2757
aI1377
aa(lp2758
VLoV3
p2759
aI1378
aa(lp2760
V\u4eac\u6025
p2761
aI1379
aa(lp2762
V\u5730\u7403\u9632\u885b\u8ecd4
p2763
aI1380
aa(lp2764
VCFO
p2765
aI1381
aa(lp2766
V\u65c5m@s
p2767
aI1382
aa(lp2768
V\u9752\u5c71\u7e41\u6674
p2769
aI1383
aa(lp2770
V\u592a\u95a4\u7acb\u5fd7\u4f1d
p2771
aI1384
aa(lp2772
V\u7dcb\u60f3\u5929
p2773
aI1385
aa(lp2774
VCOAT\u30a2\u30cb\u30e1\u30fc\u30b7\u30e7\u30f3
p2775
aI1386
aa(lp2776
V\u975e\u60f3\u5929\u5247
p2777
aI1387
aa(lp2778
V\u30b0\u30e9\u30c7\u30a3\u30a6\u30b9
p2779
aI1388
aa(lp2780
V\u30a2\u30a4\u30de\u30b9\u6559\u990a\u8b1b\u5ea7
p2781
aI1389
aa(lp2782
V\u30ef\u30fc\u30eb\u30c9\u30a4\u30ba\u30de\u30a4\u30f3
p2783
aI1390
aa(lp2784
V\u30de\u30d3\u30ce\u30ae
p2785
aI1391
aa(lp2786
V\u30e9\u30b0\u30ca\u30ed\u30af\u30aa\u30f3\u30e9\u30a4\u30f3
p2787
aI1392
aa(lp2788
V\u6642\u306e\u30aa\u30ab\u30ea\u30ca
p2789
aI1393
aa(lp2790
V\u5ddd\u7530\u307e\u307f
p2791
aI1394
aa(lp2792
VMMD\u30e6\u30fc\u30b6\u30fc\u30e2\u30c7\u30eb(\u6f2b\u753b\u3001\u30a2\u30cb\u30e1\u95a2\u9023)
p2793
aI1395
aa(lp2794
VR18
p2795
aI1396
aa(lp2796
VMinecraft\u30b7\u30ea\u30fc\u30baPart1\u30ea\u30f3\u30af
p2797
aI1397
aa(lp2798
V\u30aa\u30f3\u30e9\u30a4\u30f3\u30b2\u30fc\u30e0
p2799
aI1398
aa(lp2800
VJR\u6771\u65e5\u672c
p2801
aI1399
aa(lp2802
V\u30ef\u30a4\u30eb\u30c9\u30a2\u30fc\u30e0\u30ba
p2803
aI1400
aa(lp2804
V\u30e1\u30c0\u30ed\u30c3\u30c8
p2805
aI1401
aa(lp2806
V\u30e0\u30b9\u30ab
p2807
aI1402
aa(lp2808
V2ch\u30db\u30e9\u30fc\u30ea\u30f3\u30af
p2809
aI1403
aa(lp2810
V\u3082\u3057\u3082\u30b7\u30ea\u30fc\u30ba
p2811
aI1404
aa(lp2812
V\u4f4e\u753b\u8cea
p2813
aI1405
aa(lp2814
V\u662d\u548c
p2815
aI1406
aa(lp2816
V\u8d85\u5c55\u958b
p2817
aI1407
aa(lp2818
V\u30cb\u30b3\u30cb\u30b3\u6d77\u5916\u65c5\u884c
p2819
aI1408
aa(lp2820
V\u795e\u8abf\u6559
p2821
aI1409
aa(lp2822
VDMC4
p2823
aI1410
aa(lp2824
V\u897f\u5ddd\u8cb4\u6559
p2825
aI1411
aa(lp2826
V\u30de\u30ea\u30aa\u30ab\u30fc\u30c8Wii
p2827
aI1412
aa(lp2828
V\uff2f\uff30
p2829
aI1413
aa(lp2830
V\u30ea\u30dc\u30fc\u30f3
p2831
aI1414
aa(lp2832
V\u3072\u3068\u308a\u6a5f\u52d5\u64ae\u5f71\u968a
p2833
aI1415
aa(lp2834
V\u30e4\u30f3\u30c7\u30ecCD\u3068\u4f1a\u8a71\u3055\u305b\u308b\u30b7\u30ea\u30fc\u30ba
p2835
aI1416
aa(lp2836
V\u7247\u9727\u70c8\u706b
p2837
aI1417
aa(lp2838
V\u3077\u3088\u3077\u3088\u30d5\u30a3\u30fc\u30d0\u30fc
p2839
aI1418
aa(lp2840
V10
p2841
aI1419
aa(lp2842
VMMO
p2843
aI1420
aa(lp2844
V\u30b9\u30ca\u30c3\u30af\u521d\u97f3
p2845
aI1421
aa(lp2846
V\u3064\u308f\u306f\u3059
p2847
aI1422
aa(lp2848
V\u3058\u308f\u3058\u308f\u304f\u308b
p2849
aI1423
aa(lp2850
V\u53cd\u65e5
p2851
aI1424
aa(lp2852
VTM_NETWORK
p2853
aI1425
aa(lp2854
VGGXrd
p2855
aI1426
aa(lp2856
V\u30bb\u30eb\u30d5\u30a8\u30b3\u30ce\u30df\u30fc
p2857
aI1427
aa(lp2858
V\u6c34\u8c37\u7d75\u7406
p2859
aI1428
aa(lp2860
V\u672c\u4eba\u5de1\u56de\u6e08\u307f
p2861
aI1429
aa(lp2862
V\uff30\uff33\uff13
p2863
aI1430
aa(lp2864
VSAO
p2865
aI1431
aa(lp2866
VGT5
p2867
aI1432
aa(lp2868
V\u30b9\u30fc\u30d1\u30fc\u30f4\u30a9\u30fc\u30ab\u30ea\u30b9\u30c8\u96c6
p2869
aI1433
aa(lp2870
V\u30c9\u30e9\u30af\u30a83
p2871
aI1434
aa(lp2872
VRADWIMPS
p2873
aI1435
aa(lp2874
VKADA
p2875
aI1436
aa(lp2876
V\u52a0\u85e4\u82f1\u7f8e\u91cc
p2877
aI1437
aa(lp2878
Vnoarchive
p2879
aI1438
aa(lp2880
V\u3053\u306e\u767a\u60f3\u306f\u306a\u304b\u3063\u305f
p2881
aI1439
aa(lp2882
V\u30bf\u30af\u30c6\u30a3\u30af\u30b9\u30aa\u30a6\u30ac
p2883
aI1440
aa(lp2884
V\u516c\u958b\u51e6\u5211
p2885
aI1441
aa(lp2886
V\u6a5f\u52d5\u6226\u58eb\u30ac\u30f3\u30c0\u30e0SEED
p2887
aI1442
aa(lp2888
VVoc@loidM@ster
p2889
aI1443
aa(lp2890
V\u7b11\u5287\u306e\u30e9\u30b9\u30c8
p2891
aI1444
aa(lp2892
V\u30a2\u30cb\u30e1\u756a\u7d44\u3067\u653e\u6620\u3057\u3066\u305f\uff23\uff2d\u96c6
p2893
aI1445
aa(lp2894
V\u30b7\u30e7\u30bf
p2895
aI1446
aa(lp2896
V\u30ec\u30fc\u30b9
p2897
aI1447
aa(lp2898
V\u30ad\u30e3\u30f3\u30d7
p2899
aI1448
aa(lp2900
V\u4e94\u5e74\u30ea\u30f3\u30af
p2901
aI1449
aa(lp2902
VSteins;Gate
p2903
aI1450
aa(lp2904
V\u305b\u3093\u3068\u3059
p2905
aI1451
aa(lp2906
VYMO
p2907
aI1452
aa(lp2908
V\u5730\u9707
p2909
aI1453
aa(lp2910
V\u6843\u4e95\u306f\u308b\u3053
p2911
aI1454
aa(lp2912
V\u5c16\u95a3\u8af8\u5cf6
p2913
aI1455
aa(lp2914
Vkey
p2915
aI1456
aa(lp2916
V\u30b9\u30cd\u30fc\u30af
p2917
aI1457
aa(lp2918
V\u6771\u98a8\u8c37\u65e9\u82d7
p2919
aI1458
aa(lp2920
V\u6df1\u523b\u306a\u7d20\u6750\u904e\u591a
p2921
aI1459
aa(lp2922
VVOCALOID3\u767a\u58f2\u8a18\u5ff5\u30b3\u30f3\u30c6\u30b9\u30c8
p2923
aI1460
aa(lp2924
V\u5148\u751f\u3001\u30bf\u30b0\u30ed\u30c3\u30af\u305d\u3053\u3058\u3083\u306a\u3044\u3067\u3059
p2925
aI1461
aa(lp2926
VP4U
p2927
aI1462
aa(lp2928
V.hack
p2929
aI1463
aa(lp2930
V\u5e73\u6ca2\u552f
p2931
aI1464
aa(lp2932
VJ-POP
p2933
aI1465
aa(lp2934
V\u4e09\u68ee\u3059\u305a\u3053
p2935
aI1466
aa(lp2936
V\u6700\u7d42\u5175\u5668\u4ffa\u9054
p2937
aI1467
aa(lp2938
V\u516b\u96f2\u7d2b
p2939
aI1468
aa(lp2940
VVIP
p2941
aI1469
aa(lp2942
V\u3051\u3044\u304a\u3093
p2943
aI1470
aa(lp2944
V\u5185\u6751\u5149\u826f
p2945
aI1471
aa(lp2946
V\u6771\u4eac
p2947
aI1472
aa(lp2948
VFate/stay_night
p2949
aI1473
aa(lp2950
V\u30b7\u30e5\u30fc\u30c6\u30a3\u30f3\u30b0
p2951
aI1474
aa(lp2952
V\u4e09\u570b\u7121\u53cc
p2953
aI1475
aa(lp2954
V\u30d7\u30e9\u30e2\u30c7\u30eb
p2955
aI1476
aa(lp2956
V\u30c4\u30a4\u30f3\u30c6\u30fc\u30eb
p2957
aI1477
aa(lp2958
V\u6b8b\u5ff5\u306a\u30a4\u30b1\u30e1\u30f3
p2959
aI1478
aa(lp2960
VJOYSOUND\u4ea4\u6e09\u4e2d
p2961
aI1479
aa(lp2962
V\u6c17\u3065\u3044\u305f\u3089\u2192http://mynippon.jp
p2963
aI1480
aa(lp2964
VMV
p2965
aI1481
aa(lp2966
VIA\u30aa\u30ea\u30b8\u30ca\u30eb\u66f2
p2967
aI1482
aa(lp2968
V\u7cde\u52d5\u753b
p2969
aI1483
aa(lp2970
V\u30db\u30e9\u30fc\u6deb\u5922
p2971
aI1484
aa(lp2972
V\u3046\u305f\u308f\u308c\u308b\u3082\u306e
p2973
aI1485
aa(lp2974
V\u30d3\u30fc\u30c8\u307e\u308a\u304a
p2975
aI1486
aa(lp2976
V\u30bc\u30ce\u30ae\u30a2\u30b9
p2977
aI1487
aa(lp2978
V\u6c34\u66dc\u3069\u3046\u3067\u3057\u3087\u3046
p2979
aI1488
aa(lp2980
V\u3053\u3053\u306b\u75c5\u9662\u3092\u5efa\u3066\u3088\u3046
p2981
aI1489
aa(lp2982
VTVXQ
p2983
aI1490
aa(lp2984
VMUGEN\u30c8\u30fc\u30ca\u30e1\u30f3\u30c8OP
p2985
aI1491
aa(lp2986
VTD\u7cfb
p2987
aI1492
aa(lp2988
V\u8d85\u7d76\u6280\u5de7
p2989
aI1493
aa(lp2990
VBL\u30b2\u30fc\u30e0
p2991
aI1494
aa(lp2992
VTPP
p2993
aI1495
aa(lp2994
V\u30d0\u30a4\u30aa\u30cf\u30b6\u30fc\u30c9\uff15
p2995
aI1496
aa(lp2996
V\u82f1\u8a9e
p2997
aI1497
aa(lp2998
V\u30cd\u30bf\u304c\u591a\u3059\u304e\u3066\u30bf\u30b0\u306b\u56f0\u308b\u52d5\u753b
p2999
aI1498
aa(lp3000
V\u30b3\u30fc\u30c9\u30aa\u30d6\u30b8\u30e7\u30fc\u30ab\u30fc
p3001
aI1499
aa(lp3002
V\u8266\u968a\u3053\u308c\u304f\u3057\u3087\u3093_-\u8266\u3053\u308c-\uff08\u30a2\u30cb\u30e1\uff09
p3003
aI1500
aa(lp3004
V\u6027\u8ee2\u63db
p3005
aI1501
aa(lp3006
V\u798f\u5713\u7f8e\u91cc
p3007
aI1502
aa(lp3008
VTCG
p3009
aI1503
aa(lp3010
V\u30a2\u30cb\u30e1\u8272\u306e\u306a\u3044\u4f5c\u696d\u7528\uff22\uff27\uff2d
p3011
aI1504
aa(lp3012
VGBA
p3013
aI1505
aa(lp3014
V\u30a2\u30e9\u30c9
p3015
aI1506
aa(lp3016
V\u677e\u7530\u8056\u5b50
p3017
aI1507
aa(lp3018
V\u5b87\u591a\u4e38
p3019
aI1508
aa(lp3020
V\u4e09\u56fd\u5fd711
p3021
aI1509
aa(lp3022
V\u5c04\u547d\u4e38\u6587
p3023
aI1510
aa(lp3024
Vmugen\u30b9\u30c8\u30fc\u30ea\u30fc
p3025
aI1511
aa(lp3026
V\u30a2\u30a4\u30c9\u30eb\u30de\u30b9\u30bf\u30fc\u30b7\u30f3\u30c7\u30ec\u30e9\u30ac\u30fc\u30eb\u30ba
p3027
aI1512
aa(lp3028
V\u30b9\u30a4\u30fc\u30c8\u30de\u30b8\u30c3\u30af
p3029
aI1513
aa(lp3030
V\u30cb\u30b3\u30cb\u30b3\u9244\u9053\u682a\u5f0f\u4f1a\u793e
p3031
aI1514
aa(lp3032
V\u6620\u753b\u4e88\u544a\u7de8
p3033
aI1515
aa(lp3034
V\u5922\u306b\u51fa\u308b\u30b7\u30ea\u30fc\u30ba
p3035
aI1516
aa(lp3036
V\u5b9f\u6a5f
p3037
aI1517
aa(lp3038
V\u9244\u9053\u6b74\u53f2\u30b7\u30ea\u30fc\u30ba
p3039
aI1518
aa(lp3040
VA\u5217\u8eca\u3067\u884c\u3053\u30469
p3041
aI1519
aa(lp3042
V\u30de\u30c3\u30b5\u30fc\u30b8
p3043
aI1520
aa(lp3044
V\u30a2\u30af\u30a2\u30ea\u30a6\u30e0
p3045
aI1521
aa(lp3046
V\u30a8\u30f3\u30bf\u30fc\u30c6\u30a4\u30f3\u30e1\u30f3\u30c8
p3047
aI1522
aa(lp3048
V\u6771\u65b9\u904a\u622f\u738b
p3049
aI1523
aa(lp3050
V\u30b2\u30fc\u30e0\u30d7\u30ec\u30a4Part1\u30ea\u30f3\u30af
p3051
aI1524
aa(lp3052
V\u5c0f\u6797\u3086\u3046
p3053
aI1525
aa(lp3054
V\u30e9\u30fc\u30e1\u30f3\u30ba
p3055
aI1526
aa(lp3056
V\u03bc's
p3057
aI1527
aa(lp3058
V\u65e5\u9ad8\u611b
p3059
aI1528
aa(lp3060
V\u5929\u4f7f
p3061
aI1529
aa(lp3062
VBGM\u3092\u5909\u3048\u3066\u307f\u305f\u30b7\u30ea\u30fc\u30ba
p3063
aI1530
aa(lp3064
V\u56fd\u9053
p3065
aI1531
aa(lp3066
V\u5927\u962a
p3067
aI1532
aa(lp3068
V\u30c9\u30f3\u30ad\u30fc\u30b3\u30f3\u30b0
p3069
aI1533
aa(lp3070
V\u30af\u30a4\u30ba
p3071
aI1534
aa(lp3072
VMO
p3073
aI1535
aa(lp3074
V\u71ed\u53f0\u5207\u5149\u5fe0(\u5200\u5263\u4e71\u821e)
p3075
aI1536
aa(lp3076
VMMD\u9b3c\u5fb9
p3077
aI1537
aa(lp3078
V\u7121\u53ccMAD
p3079
aI1538
aa(lp3080
V\u306a\u308b\u307b\u3069\u3001\u308f\u304b\u3089\u3093
p3081
aI1539
aa(lp3082
V\u304a\u7d75\u304b\u304d\u30e1\u30a4\u30ad\u30f3\u30b0
p3083
aI1540
aa(lp3084
VSuddenAttack
p3085
aI1541
aa(lp3086
V\u30cb\u30e5\u30fc\u30b9
p3087
aI1542
aa(lp3088
V\u308b\u308d\u3046\u306b\u5263\u5fc3
p3089
aI1543
aa(lp3090
V\u971c\u6708\u306f\u308b\u304b
p3091
aI1544
aa(lp3092
V\u30b5\u30b6\u30a8\u3055\u3093
p3093
aI1545
aa(lp3094
V\u5275\u4fa1\u5b66\u4f1a
p3095
aI1546
aa(lp3096
V\u88cf\u8868\u30e9\u30d0\u30fc\u30ba
p3097
aI1547
aa(lp3098
V\u6620\u753b\u97f3\u697d
p3099
aI1548
aa(lp3100
V\u3058\u308f\u3058\u308f\u8a55\u4fa1\u3055\u308c\u308b\u3079\u304d
p3101
aI1549
aa(lp3102
VFF12
p3103
aI1550
aa(lp3104
V\u52dd\u3066\u308b\u6c17\u304c\u3057\u306a\u3044
p3105
aI1551
aa(lp3106
V\u3072\u3050\u3089\u3057\u306e\u306a\u304f\u9803\u306b\u89e3
p3107
aI1552
aa(lp3108
V\u5353\u30b2M@Ster
p3109
aI1553
aa(lp3110
V\u4e73\u63fa\u308c
p3111
aI1554
aa(lp3112
VMOTHER2
p3113
aI1555
aa(lp3114
V\u30e1\u30a4\u30c9
p3115
aI1556
aa(lp3116
V\u30cb\u30b3\u30cb\u30b3\u30ab\u30e9\u30aa\u30b1\uff24\uff22
p3117
aI1557
aa(lp3118
V60fps
p3119
aI1558
aa(lp3120
V\u53ef\u611b\u3044\u306f\u6b63\u7fa9
p3121
aI1559
aa(lp3122
V\u304a\u305d\u30ed\u30b7\u30a2
p3123
aI1560
aa(lp3124
V\u751f\u653e\u9001
p3125
aI1561
aa(lp3126
V\u6b8b\u9177\u306a\u5929\u4f7f\u306e\u30c6\u30fc\u30bc
p3127
aI1562
aa(lp3128
V\u306a\u306e\u306f
p3129
aI1563
aa(lp3130
VGC
p3131
aI1564
aa(lp3132
V\u7d76\u5bfe\u9818\u57df
p3133
aI1565
aa(lp3134
V\u30c9\u30c3\u30ad\u30ea
p3135
aI1566
aa(lp3136
V\u624b\u66f8\u304dBASARA
p3137
aI1567
aa(lp3138
V\u30c7\u30e5\u30e9\u30e9\u30e9!!ED\u30d1\u30ed\u30ea\u30f3\u30af
p3139
aI1568
aa(lp3140
V\u9ce5\u306e\u8a69
p3141
aI1569
aa(lp3142
V\u4f0a\u85e4\u9759
p3143
aI1570
aa(lp3144
V\u6771\u65b9\u3092\u6b4c\u3063\u3066\u307f\u305f
p3145
aI1571
aa(lp3146
V\u9b42\u9b44\u5996\u5922
p3147
aI1572
aa(lp3148
V\u3082\u3063\u3068\u795d\u798f\u3055\u308c\u308b\u3079\u304d
p3149
aI1573
aa(lp3150
V\u30b4\u30c3\u30c9\u30a4\u30fc\u30bf\u30fc
p3151
aI1574
aa(lp3152
V\u30c7\u30d5\u30a9\u5b50
p3153
aI1575
aa(lp3154
V\u307c\u304f\u3089\u306e
p3155
aI1576
aa(lp3156
V\u30e9\u30b8\u30aa\u30c9\u30e9\u30de
p3157
aI1577
aa(lp3158
V\u30b0\u30e9\u30d3\u30a2
p3159
aI1578
aa(lp3160
VMAD\u52d5\u753b\u3092\u6b4c\u3063\u3066\u307f\u305f
p3161
aI1579
aa(lp3162
V\u30eb\u30ab\u30eb\u30ab\u2605\u30ca\u30a4\u30c8\u30d5\u30a3\u30fc\u30d0\u30fc
p3163
aI1580
aa(lp3164
Vwii
p3165
aI1581
aa(lp3166
V\u30c0\u30fc\u30af\u30bd\u30a6\u30eb\u4fb5\u5165\u52d5\u753b
p3167
aI1582
aa(lp3168
VM.S.SProject
p3169
aI1583
aa(lp3170
V\u840c\u3048
p3171
aI1584
aa(lp3172
V\u30cb\u30b3\u30de\u30b9\u304a\u3063\u30db\u30a4
p3173
aI1585
aa(lp3174
V\u8056\u5730\u5de1\u793c
p3175
aI1586
aa(lp3176
V\u5c01\u5370\u306e\u5263
p3177
aI1587
aa(lp3178
VVOCALOID\u30aa\u30ea\u30b8\u30ca\u30eb\u66f2
p3179
aI1588
aa(lp3180
V\u30c9\u30e9\u30af\u30a85
p3181
aI1589
aa(lp3182
V\u5408\u5531\u66f2
p3183
aI1590
aa(lp3184
V\u4f53\u9a13\u7248
p3185
aI1591
aa(lp3186
V\u68ee\u306e\u5996\u7cbe
p3187
aI1592
aa(lp3188
V\u9ad8\u6a4b\u5927\u8f14
p3189
aI1593
aa(lp3190
V\u3053\u304f\u3058\u3093
p3191
aI1594
aa(lp3192
V\u30a4\u30f3\u30b9\u30c8
p3193
aI1595
aa(lp3194
V\u624b\u63cf\u304d\u65e5\u548c\u30b7\u30ea\u30fc\u30ba
p3195
aI1596
aa(lp3196
V\u30b5\u30c3\u30ab\u30fc\u65e5\u672c\u4ee3\u8868
p3197
aI1597
aa(lp3198
V\u30a2\u30af\u30a8\u30ea\u30aa\u30f3
p3199
aI1598
aa(lp3200
V\u65b0\u751f\u30a8\u30aa\u30eb\u30bc\u30a2
p3201
aI1599
aa(lp3202
V\u6804\u51a0\u30ca\u30a4\u30f3
p3203
aI1600
aa(lp3204
V\u98db\u884c\u6a5f
p3205
aI1601
aa(lp3206
V\u30ed\u30fc\u30ab\u30ebCM
p3207
aI1602
aa(lp3208
V\u3084\u308b\u592b
p3209
aI1603
aa(lp3210
VMay'n
p3211
aI1604
aa(lp3212
VT.M.Revolution
p3213
aI1605
aa(lp3214
V\u6817\u6797\u307f\u306a\u5b9f
p3215
aI1606
aa(lp3216
VUTAU\u30ab\u30d0\u30fc\u66f2
p3217
aI1607
aa(lp3218
VPSVITA
p3219
aI1608
aa(lp3220
V\u82b8\u4ebaMAD
p3221
aI1609
aa(lp3222
V\u30ad\u30e3\u30d7\u30c6\u30f3\u7ffc
p3223
aI1610
aa(lp3224
V\u690d\u7530\u4f73\u5948
p3225
aI1611
aa(lp3226
V\u5343\u672c\u685c
p3227
aI1612
aa(lp3228
V\u5e83\u6a4b\u6dbc
p3229
aI1613
aa(lp3230
V\u30ab\u30fc\u30c9\u30d3\u30eb\u30c0\u30fc
p3231
aI1614
aa(lp3232
V\u30cd\u30c8\u30b2
p3233
aI1615
aa(lp3234
V\u65e5\u672c\u4e00\u30bd\u30d5\u30c8\u30a6\u30a7\u30a2
p3235
aI1616
aa(lp3236
V\u7fbd\u751f\u7d50\u5f26
p3237
aI1617
aa(lp3238
V\u591a\u4eba\u6570\u3086\u3063\u304f\u308a\u5b9f\u6cc1\u30d7\u30ec\u30a4
p3239
aI1618
aa(lp3240
V\u30b9\u30fc\u30d1\u30fc\u30de\u30ea\u30aa64
p3241
aI1619
aa(lp3242
V\u3075\u3068\u3082\u3082
p3243
aI1620
aa(lp3244
V\u30d4\u30c3\u30c1
p3245
aI1621
aa(lp3246
V\u81ea\u4f5c\u30b2\u30fc\u30e0
p3247
aI1622
aa(lp3248
V\u30cd\u30bf\u30d0\u30ec
p3249
aI1623
aa(lp3250
V\u622f\u753b
p3251
aI1624
aa(lp3252
V\u6697\u9ed2\u9ed9\u793a\u9332
p3253
aI1625
aa(lp3254
VMJ4
p3255
aI1626
aa(lp3256
V\u30d5\u30b8\u30c6\u30ec\u30d3
p3257
aI1627
aa(lp3258
V\u9a5a\u7570\u306e\u30b7\u30f3\u30af\u30ed\u7387
p3259
aI1628
aa(lp3260
V\u671d\u65e5\u65b0\u805e
p3261
aI1629
aa(lp3262
V\u5acc\u306a\u4e88\u611f\u3057\u304b\u3057\u306a\u3044
p3263
aI1630
aa(lp3264
V\u3082\u3063\u3066\u3051\uff01\u30bb\u30fc\u30e9\u30fc\u3075\u304f
p3265
aI1631
aa(lp3266
V\u30a2\u30d5\u30ec\u30b3
p3267
aI1632
aa(lp3268
V\u6771\u65b9\u6c34\u7740\u30c0\u30f3\u30b9\u30ea\u30f3\u30af
p3269
aI1633
aa(lp3270
V\u30ed\u30de\u30b5\u30ac3
p3271
aI1634
aa(lp3272
VBad_Apple!!
p3273
aI1635
aa(lp3274
V\u98a8\u898b\u5e7d\u9999
p3275
aI1636
aa(lp3276
V\u5439\u3044\u3066\u307f\u305f
p3277
aI1637
aa(lp3278
VKOF2002UM
p3279
aI1638
aa(lp3280
VD.C.\u2161
p3281
aI1639
aa(lp3282
V\u30ed\u30c3\u30af\u30de\u30f3X
p3283
aI1640
aa(lp3284
V\u91d1\u9b42\u8ff7\u5834\u9762\u30bb\u30ec\u30af\u30b7\u30e7\u30f3
p3285
aI1641
aa(lp3286
V\u84bc\u7a79\u306e\u30d5\u30a1\u30d5\u30ca\u30fc
p3287
aI1642
aa(lp3288
V\u30e1\u30c8\u30ed\u30a4\u30c9
p3289
aI1643
aa(lp3290
V\u30ac\u30c1\u30e3
p3291
aI1644
aa(lp3292
V\u30e9\u30eb\u30af
p3293
aI1645
aa(lp3294
V\u30bf\u30df\u30d5\u30eb
p3295
aI1646
aa(lp3296
V\u6c34\u6a4b\u304b\u304a\u308a
p3297
aI1647
aa(lp3298
V\u516d\u5e74\u30ea\u30f3\u30af
p3299
aI1648
aa(lp3300
VProjectDIVAArcade\u5916\u90e8\u51fa\u529b
p3301
aI1649
aa(lp3302
V\u677e\u672c\u4eba\u5fd7
p3303
aI1650
aa(lp3304
V\u5973\u88c5
p3305
aI1651
aa(lp3306
V\u30c6\u30a4\u30eb\u30ba\u30aa\u30d6\u30b7\u30f3\u30d5\u30a9\u30cb\u30a2
p3307
aI1652
aa(lp3308
V\u30d6\u30e9\u30c3\u30af\u2605\u30ed\u30c3\u30af\u30b7\u30e5\u30fc\u30bf\u30fc
p3309
aI1653
aa(lp3310
Vamnos
p3311
aI1654
aa(lp3312
V\u3082\u3063\u3068\u71b1\u304f\u306a\u308b\u3079\u304d
p3313
aI1655
aa(lp3314
V\u30ec\u30c8\u30eb\u30c8
p3315
aI1656
aa(lp3316
V\u4e2d\u65e5
p3317
aI1657
aa(lp3318
V\u30da\u30eb\u30bd\u30ca3
p3319
aI1658
aa(lp3320
V2PM
p3321
aI1659
aa(lp3322
V\u30e0\u30b8\u30e5\u30e9\u306e\u4eee\u9762
p3323
aI1660
aa(lp3324
V\u30b9\u30af\u30d5\u30a7\u30b9
p3325
aI1661
aa(lp3326
V\u7121\u7406\u30b2\u30fc
p3327
aI1662
aa(lp3328
V\u30d0\u30ab\u30b2\u30fc
p3329
aI1663
aa(lp3330
VAP\u30d8\u30bf\u30ea\u30a2\u89aa\u5206\u30ea\u30f3\u30af
p3331
aI1664
aa(lp3332
V\u6a2a\u6d5cDeNA\u30d9\u30a4\u30b9\u30bf\u30fc\u30ba
p3333
aI1665
aa(lp3334
V\u2468
p3335
aI1666
aa(lp3336
V\u3086\u3081\u306b\u3063\u304d
p3337
aI1667
aa(lp3338
V\u3050\u308b\u305f\u307f\u3093
p3339
aI1668
aa(lp3340
V\u9ad8\u6821\u91ce\u7403
p3341
aI1669
aa(lp3342
V\u30ec\u30fc\u30b9\u30b2\u30fc\u30e0
p3343
aI1670
aa(lp3344
V\u30a4\u30b1\u30dc
p3345
aI1671
aa(lp3346
VDIO
p3347
aI1672
aa(lp3348
V\u6a4b\u4e0b\u5fb9
p3349
aI1673
aa(lp3350
V\u4e2d\u5cf6\u611b
p3351
aI1674
aa(lp3352
V\u30b0\u30ec\u30f3\u30e9\u30ac\u30f3
p3353
aI1675
aa(lp3354
V\uff30\uff23\u30b2\u30fc\u30e0
p3355
aI1676
aa(lp3356
V\u723d\u3084\u304b\u306a\u30df\u30af\u3046\u305f
p3357
aI1677
aa(lp3358
V\uff72\uff72\uff8a\uff85\uff7c\uff80\uff9e\uff85\uff70
p3359
aI1678
aa(lp3360
V\u3042\u3055\u304d
p3361
aI1679
aa(lp3362
V\u8266\u3053\u308cMAD
p3363
aI1680
aa(lp3364
V\u5927\u6771\u4e9c\u6226\u4e89
p3365
aI1681
aa(lp3366
V\u30d1\u30f3\u30b9\u30c8
p3367
aI1682
aa(lp3368
V\u30b2\u30fc\u30e0\u5b9f\u6cc1\u8005MAD
p3369
aI1683
aa(lp3370
V\u30d5\u30eb\u30b9\u30af\u30ea\u30fc\u30f3\u63a8\u5968
p3371
aI1684
aa(lp3372
V\u30db\u30e9\u30fc\u5b9f\u6cc1\u30d7\u30ec\u30a4part1\u30ea\u30f3\u30af
p3373
aI1685
aa(lp3374
V\u677e\u6765\u672a\u7950
p3375
aI1686
aa(lp3376
VTopGear
p3377
aI1687
aa(lp3378
V\u5bff\u7f8e\u83dc\u5b50
p3379
aI1688
aa(lp3380
V\u521d\u97f3\u30df\u30afAppend
p3381
aI1689
aa(lp3382
V\u6c96\u7530\u7dcf\u609f
p3383
aI1690
aa(lp3384
V\u4e45\u77f3\u8b72
p3385
aI1691
aa(lp3386
V\u30be\u30a4\u30c9
p3387
aI1692
aa(lp3388
V\u8089\u6599\u7406
p3389
aI1693
aa(lp3390
V\u30ac\u30f3\u30c0\u30e0vs.\u30ac\u30f3\u30c0\u30e0
p3391
aI1694
aa(lp3392
VMH4G
p3393
aI1695
aa(lp3394
VKOKIA
p3395
aI1696
aa(lp3396
V\u30cb\u30b3\u30cb\u30b3\u30a2\u30cb\u30e1\u30c1\u30e3\u30f3\u30cd\u30eb
p3397
aI1697
aa(lp3398
V\u9db4\u4e38\u56fd\u6c38(\u5200\u5263\u4e71\u821e)
p3399
aI1698
aa(lp3400
V\u30d4\u30af\u30df\u30f3
p3401
aI1699
aa(lp3402
Vsupercell
p3403
aI1700
aa(lp3404
VUTAU\u5f0f\u4eba\u529b
p3405
aI1701
aa(lp3406
V\u76f4\u64ae\u308a
p3407
aI1702
aa(lp3408
VP-martTV
p3409
aI1703
aa(lp3410
V\u30b8\u30a7\u30d0\u30f3\u30cb
p3411
aI1704
aa(lp3412
V\u7dba\u9e97\u306a\u304a\u59c9\u3055\u3093
p3413
aI1705
aa(lp3414
V\u5357\u689d\u611b\u4e43
p3415
aI1706
aa(lp3416
V\u9019\u3044\u3088\u308c\uff01\u30cb\u30e3\u30eb\u5b50\u3055\u3093
p3417
aI1707
aa(lp3418
V\u4ffa\u5f97
p3419
aI1708
aa(lp3420
V\u5207\u306a\u9854P\u5f0f\u30ea\u30f4\u30a1\u30a4
p3421
aI1709
aa(lp3422
V\u30aa\u30fc\u30d0\u30fc\u30ad\u30eb
p3423
aI1710
aa(lp3424
V\u30cb\u30f3\u30c6\u30f3\u30c9\u30fc3DS
p3425
aI1711
aa(lp3426
V\u30f4\u30a7\u30b9\u30da\u30ea\u30a2
p3427
aI1712
aa(lp3428
V\u30a8\u30ec\u30af\u30c8\u30fc\u30f3
p3429
aI1713
aa(lp3430
V\u91d1\u5143\u5bff\u5b50
p3431
aI1714
aa(lp3432
V\u30ea\u30e5\u30a6
p3433
aI1715
aa(lp3434
V\u3060\u3044\u305f\u3044\u5408\u3063\u3066\u308b
p3435
aI1716
aa(lp3436
V\u5b66\u6821\u3067\u3042\u3063\u305f\u6016\u3044\u8a71
p3437
aI1717
aa(lp3438
V\u3069\u3046\u3042\u304c\u3044\u3066\u3082\u7d76\u671b
p3439
aI1718
aa(lp3440
VAP\u30d8\u30bf\u30ea\u30a2\u30b8\u30e3\u30ac\u30ea\u30f3\u30af
p3441
aI1719
aa(lp3442
V\u6c34\u6728\u4e00\u90ce
p3443
aI1720
aa(lp3444
V\u52a0\u85e4\u7d14\u4e00
p3445
aI1721
aa(lp3446
V\u53e4\u660e\u5730\u3055\u3068\u308a
p3447
aI1722
aa(lp3448
V\u30e2\u30ce\u30ce\u602a
p3449
aI1723
aa(lp3450
V\u306c\u308b\u306c\u308b\u52d5\u304f
p3451
aI1724
aa(lp3452
V\u30c9\u30e9\u30af\u30a8\uff15
p3453
aI1725
aa(lp3454
V\u30cb\u30b3\u30cb\u30b3\u30bd\u30ed\u30ae\u30bf\u30ea\u30b9\u30c8
p3455
aI1726
aa(lp3456
V\uff32\uff30\uff27\u30c4\u30af\u30fc\u30eb
p3457
aI1727
aa(lp3458
V\u30b3\u30f3\u30dc
p3459
aI1728
aa(lp3460
VIb
p3461
aI1729
aa(lp3462
V\u4ee3\u6c38\u7ffc
p3463
aI1730
aa(lp3464
V\u5929\u9cf3
p3465
aI1731
aa(lp3466
V\u4fe1\u983c\u306e\u30de\u30a4\u30ea\u30b9\u7387
p3467
aI1732
aa(lp3468
V\u304b\u308f\u3044\u3044\u30df\u30af\u3046\u305f
p3469
aI1733
aa(lp3470
V\u5c0f\u5009\u552f
p3471
aI1734
aa(lp3472
VAP\u30d8\u30bf\u30ea\u30a2\u9732\u897f\u4e9c\u30ea\u30f3\u30af
p3473
aI1735
aa(lp3474
V\u6226\u56fdBASARA3
p3475
aI1736
aa(lp3476
VVOCALOID3
p3477
aI1737
aa(lp3478
V\u8305\u91ce\u611b\u8863
p3479
aI1738
aa(lp3480
VCoD:MW2
p3481
aI1739
aa(lp3482
VMBAA
p3483
aI1740
aa(lp3484
V\u30dc\u30f3\u30c6\u30eaP
p3485
aI1741
aa(lp3486
VTerraria
p3487
aI1742
aa(lp3488
VXBLA
p3489
aI1743
aa(lp3490
V\u5ddd\u6f84\u7dbe\u5b50
p3491
aI1744
aa(lp3492
V\u30ac\u30f3\u30c0\u30e0vs\u30ac\u30f3\u30c0\u30e0
p3493
aI1745
aa(lp3494
V20\u4ee3\u30db\u30a4\u30db\u30a4
p3495
aI1746
aa(lp3496
V\u6d6a\u5ddd\u5927\u8f14
p3497
aI1747
aa(lp3498
V\u30b9\u30af\u30fc\u30eb\u30c7\u30a4\u30ba
p3499
aI1748
aa(lp3500
V\u5965\u4e95\u96c5\u7f8e
p3501
aI1749
aa(lp3502
V\u3086\u3063\u304f\u308a\u6717\u8aad
p3503
aI1750
aa(lp3504
V\u30b9\u30fc\u30d1\u30fc\u6226\u968a\u30b7\u30ea\u30fc\u30ba
p3505
aI1751
aa(lp3506
V\u30b3\u30e1\u975e\u8868\u793a\u63a8\u5968
p3507
aI1752
aa(lp3508
V\u6771\u5317\u305a\u3093\u5b50\u5b9f\u6cc1\u30d7\u30ec\u30a4
p3509
aI1753
aa(lp3510
V\u30d0\u30c8\u30eb\u30c9\u30fc\u30e0
p3511
aI1754
aa(lp3512
V\u30ac\u30f3\u30c0\u30e0vs\u30ac\u30f3\u30c0\u30e0NEXT
p3513
aI1755
aa(lp3514
VKey
p3515
aI1756
aa(lp3516
V\u30a2\u30e1\u30b3\u30df
p3517
aI1757
aa(lp3518
VMSX
p3519
aI1758
aa(lp3520
Vmagnet
p3521
aI1759
aa(lp3522
V\u5f8c\u85e4\u9091\u5b50
p3523
aI1760
aa(lp3524
V\u4e09\u6728\u771e\u4e00\u90ce
p3525
aI1761
aa(lp3526
V\u904a\u622f\u738b\u30aa\u30f3\u30e9\u30a4\u30f3
p3527
aI1762
aa(lp3528
V\u30b8\u30e7\u30b8\u30e7\u306e\u5947\u5999\u306a\u5192\u967a\uff08\u30a2\u30cb\u30e1\uff09
p3529
aI1763
aa(lp3530
Vhiphop
p3531
aI1764
aa(lp3532
V\u304a\u308c\u3089\u306e\u3046\u305f
p3533
aI1765
aa(lp3534
V\u5996\u602a\u30a6\u30a9\u30c3\u30c1
p3535
aI1766
aa(lp3536
V\u5357\u30c8\u30f3\u30b9\u30eb\u30e9\u30f3\u30c9
p3537
aI1767
aa(lp3538
V\u4fb5\u7565\uff01\u30a4\u30ab\u5a18
p3539
aI1768
aa(lp3540
V\u4e0d\u5354\u548c\u97f3
p3541
aI1769
aa(lp3542
V\u5b87\u591a\u7530\u30d2\u30ab\u30eb
p3543
aI1770
aa(lp3544
V\u7a32\u5ddd\u6df3\u4e8c
p3545
aI1771
aa(lp3546
V\u53e4\u660e\u5730\u3053\u3044\u3057
p3547
aI1772
aa(lp3548
V\u30dc\u30f3\u3061\u3083\u3093
p3549
aI1773
aa(lp3550
V\u6a4b\u672c\u307f\u3086\u304d
p3551
aI1774
aa(lp3552
V\u30ac\u30f3\u30b9\u30ea\u30f3\u30ac\u30fc\u30b9\u30c8\u30e9\u30c8\u30b9
p3553
aI1775
aa(lp3554
V\u3089\u3076\u5f0f\u30df\u30af
p3555
aI1776
aa(lp3556
V\u4ffa\u5f97\u52d5\u753b
p3557
aI1777
aa(lp3558
V\u4e00\u7d1a\u30d5\u30e9\u30b0\u5efa\u7bc9\u58eb
p3559
aI1778
aa(lp3560
V\u5409\u91ce\u88d5\u884c
p3561
aI1779
aa(lp3562
V\u30aa\u30ea\u30b8\u30ca\u30eb\u632f\u308a\u4ed8\u3051
p3563
aI1780
aa(lp3564
V\u5bfa\u5cf6\u62d3\u7be4
p3565
aI1781
aa(lp3566
V\u3054\u6ce8\u6587\u306f\u3046\u3055\u304e\u3067\u3059\u304b\uff1f
p3567
aI1782
aa(lp3568
V\u30a6\u30a4\u30a4\u30ec
p3569
aI1783
aa(lp3570
V\u6a2a\u5c71\u7dd1\uff08\u751f\u653e\u9001\u4e3b\uff09
p3571
aI1784
aa(lp3572
V\u30b8\u30e7\u30b8\u30e7MAD
p3573
aI1785
aa(lp3574
VGRANRODEO
p3575
aI1786
aa(lp3576
V\u5144\u8cb4
p3577
aI1787
aa(lp3578
V\u30cf\u30c9\u30bd\u30f3
p3579
aI1788
aa(lp3580
V\u6b7b\u4ea1\u30d5\u30e9\u30b0
p3581
aI1789
aa(lp3582
VFM\u97f3\u6e90
p3583
aI1790
aa(lp3584
V\u30a2\u30f3\u30d1\u30f3\u30de\u30f3
p3585
aI1791
aa(lp3586
V\u30cb\u30b3\u30cb\u30b3\u30aa\u30fc\u30eb\u30b9\u30bf\u30fc
p3587
aI1792
aa(lp3588
V\u6c37\u5e1d
p3589
aI1793
aa(lp3590
V\u7121\u8a00\u6295\u4e0b\u5144\u8cb4
p3591
aI1794
aa(lp3592
V\u4f5c\u8005\u306f\u75c5\u6c17
p3593
aI1795
aa(lp3594
V\u6a5f\u52d5\u6226\u58eb\u30ac\u30f3\u30c0\u30e0UC
p3595
aI1796
aa(lp3596
V\u6b4c\u59eb
p3597
aI1797
aa(lp3598
VVOCALOID\u548c\u98a8\u66f2
p3599
aI1798
aa(lp3600
V\u6771\u65b9\u7d05\u9b54\u90f7
p3601
aI1799
aa(lp3602
V\u5927\u576a\u7531\u4f73
p3603
aI1800
aa(lp3604
V\u3046p\u4e3b\u5931\u8e2a\u30b7\u30ea\u30fc\u30ba
p3605
aI1801
aa(lp3606
V\u79cb\u5c71\u6faa
p3607
aI1802
aa(lp3608
VONEPIECE
p3609
aI1803
aa(lp3610
V\u507d\u7269\u8a9e
p3611
aI1804
aa(lp3612
V\u30df\u30ce\u30ebch
p3613
aI1805
aa(lp3614
V\u30cf\u30e0\u30b9\u30bf\u30fc
p3615
aI1806
aa(lp3616
Vlive
p3617
aI1807
aa(lp3618
V\u8ab0\u3060\u304a\u524d
p3619
aI1808
aa(lp3620
VGITADORA
p3621
aI1809
aa(lp3622
V\u5168\u3066\u306e\u5143\u51f6
p3623
aI1810
aa(lp3624
V\u91d8\u5bae\u75c5
p3625
aI1811
aa(lp3626
V\u4e0a\u5742\u3059\u307f\u308c
p3627
aI1812
aa(lp3628
V\u5927\u585a\u660e\u592b
p3629
aI1813
aa(lp3630
VDon't_say_\u201clazy\u201d
p3631
aI1814
aa(lp3632
V\u30b7\u30a7\u30ea\u30eb\u30fb\u30ce\u30fc\u30e0
p3633
aI1815
aa(lp3634
V\u30b9\u30d1\u30ed\u30dcZ
p3635
aI1816
aa(lp3636
V\u30b5\u30f3\u30c9\u30ad\u30e3\u30cb\u30aa\u30f3
p3637
aI1817
aa(lp3638
V\u6a5f\u52d5\u6226\u58eb\u30ac\u30f3\u30c0\u30e0\u30aa\u30f3\u30e9\u30a4\u30f3
p3639
aI1818
aa(lp3640
Vzip
p3641
aI1819
aa(lp3642
V\u30c9\u30ea\u30fc\u30e0\u30af\u30e9\u30d6ZERO
p3643
aI1820
aa(lp3644
VAP\u30d8\u30bf\u30ea\u30a2\u4eba\u529b\u30dc\u30ab\u30ed
p3645
aI1821
aa(lp3646
V\u732b\u6751\u3044\u308d\u306f
p3647
aI1822
aa(lp3648
V\u6295\u7a3f\u8005\u3092\u898b\u3066\u305d\u3063\u3068\u9589\u3058\u308b\u52d5\u753b
p3649
aI1823
aa(lp3650
VDanceMixer
p3651
aI1824
aa(lp3652
V\u5b9d\u585a
p3653
aI1825
aa(lp3654
V\u30cb\u30b3\u30cb\u30b3DJ
p3655
aI1826
aa(lp3656
V\u30ed\u30a4\u30c4\u30de
p3657
aI1827
aa(lp3658
V\u30c9M\u30db\u30a4\u30db\u30a4
p3659
aI1828
aa(lp3660
V\u30a2\u30a4\u30de\u30b9\u7279\u64ae
p3661
aI1829
aa(lp3662
V\u30d6\u30ed\u30f3\u30c8\u3055\u3093
p3663
aI1830
aa(lp3664
V\u6ce2\u97f3\u30ea\u30c4
p3665
aI1831
aa(lp3666
V\u5916\u914d\u4fe1
p3667
aI1832
aa(lp3668
V\u8ee2\u8f09
p3669
aI1833
aa(lp3670
V\u901d\u3051\u308b\u304b\u3082
p3671
aI1834
aa(lp3672
V\u77e2\u4f5c\u7d17\u53cb\u91cc
p3673
aI1835
aa(lp3674
VMMDHQ!!
p3675
aI1836
aa(lp3676
V\u540d\u4f5c
p3677
aI1837
aa(lp3678
V\u5175\u9577\u30d5\u30a1\u30f3\u306e\u8056\u5730
p3679
aI1838
aa(lp3680
VX_JAPAN
p3681
aI1839
aa(lp3682
V\u5927\u4e45\u4fdd\u7460\u7f8e
p3683
aI1840
aa(lp3684
V\u30ae\u30bf\u30c9\u30e9XG
p3685
aI1841
aa(lp3686
V\u30b5\u30ac\u30d5\u30ed\u30f3\u30c6\u30a3\u30a2
p3687
aI1842
aa(lp3688
V\u624b\u63cf\u304d\u30c6\u30a4\u30eb\u30ba
p3689
aI1843
aa(lp3690
VRKRN\u5973\u6027\u5411\u3051
p3691
aI1844
aa(lp3692
V\u6226\u5834\u306e\u30f4\u30a1\u30eb\u30ad\u30e5\u30ea\u30a2
p3693
aI1845
aa(lp3694
V\u30ed\u30df\u30aa\u3068\u30b7\u30f3\u30c7\u30ec\u30e9
p3695
aI1846
aa(lp3696
V\u306a\u306e\u306fMAD
p3697
aI1847
aa(lp3698
V\u8e0a\u3063\u3066\u307f\u308d
p3699
aI1848
aa(lp3700
V\u30c6\u30cb\u30b9
p3701
aI1849
aa(lp3702
VCOJ
p3703
aI1850
aa(lp3704
V\u30cb\u30b3\u30d5\u30eaMAD
p3705
aI1851
aa(lp3706
VMMD\u30ab\u30e1\u30e9\u914d\u5e03\u3042\u308a
p3707
aI1852
aa(lp3708
V\u30b2\u30fc\u30e0\u97f3\u697d\u30a2\u30ec\u30f3\u30b8
p3709
aI1853
aa(lp3710
V\u6df1\u523b\u306a\u7c73\u4e0d\u8db3
p3711
aI1854
aa(lp3712
ViM@SPORTS
p3713
aI1855
aa(lp3714
V\u30ea\u30b3\u30fc\u30c0\u30fc
p3715
aI1856
aa(lp3716
V\u5353\u7403
p3717
aI1857
aa(lp3718
V\u4e2d\u5ddd\u7fd4\u5b50
p3719
aI1858
aa(lp3720
V\u30de\u30af\u30ed\u30b9\uff26
p3721
aI1859
aa(lp3722
V\u30c6\u30cb\u30d7\u30ea\u30ad\u30e3\u30e9\u30bd\u30f3
p3723
aI1860
aa(lp3724
V\u540c\u4eba\u97f3\u697d
p3725
aI1861
aa(lp3726
V\u8ecd\u6b4c
p3727
aI1862
aa(lp3728
VRyu\u2606
p3729
aI1863
aa(lp3730
VUGA\u30c1\u30e3\u30f3\u30cd\u30eb
p3731
aI1864
aa(lp3732
V\u7740\u30e1\u30ed\u5de5\u623f
p3733
aI1865
aa(lp3734
V\u30f4\u30a1\u30a4\u30aa\u30ea\u30f3
p3735
aI1866
aa(lp3736
VSANKYO
p3737
aI1867
aa(lp3738
V\u3053\u3063\u3061\u898b\u3093\u306a
p3739
aI1868
aa(lp3740
VAP\u30d8\u30bf\u30ea\u30a2\u2605\u306b\u3087\u305f\u308a\u3042\u30ea\u30f3\u30af
p3741
aI1869
aa(lp3742
V\u30dc\u30eb\u30be\u30a4\u4f01\u753b
p3743
aI1870
aa(lp3744
V\u5f26\u5dfb\u30de\u30ad
p3745
aI1871
aa(lp3746
VV\u7cfb
p3747
aI1872
aa(lp3748
V\u3068\u3042\u308b\u9b54\u8853\u306e\u7981\u66f8\u76ee\u9332\u2161
p3749
aI1873
aa(lp3750
V\u8a55\u4fa1\u3055\u308c\u308b\u3079\u304d
p3751
aI1874
aa(lp3752
V\u624b\u66f8\u304d\u30ea\u30dc\u30fc\u30f3
p3753
aI1875
aa(lp3754
V\u30d3\u30ad\u30cb
p3755
aI1876
aa(lp3756
V\u30c8\u30ef\u30a4\u30e9\u30a4\u30c8\u30d7\u30ea\u30f3\u30bb\u30b9
p3757
aI1877
aa(lp3758
V\u5343\u672c\u685c\uff08\u9ed2\u3046\u3055P\uff09
p3759
aI1878
aa(lp3760
VX
p3761
aI1879
aa(lp3762
V\u30b2\u30fc\u30e0\u306e\u6b74\u53f2\u30ea\u30f3\u30af
p3763
aI1880
aa(lp3764
V\u65b0\u751fFF14
p3765
aI1881
aa(lp3766
V\u30cb\u30fc\u30c8
p3767
aI1882
aa(lp3768
V\u70c8\u706b\u306e\u5263
p3769
aI1883
aa(lp3770
V\u9ce5
p3771
aI1884
aa(lp3772
V\u9ec4\u91d1\u8056\u95d8\u58eb
p3773
aI1885
aa(lp3774
VIKZO
p3775
aI1886
aa(lp3776
V\u5168\u65e5\u672c\u5439\u594f\u697d\u30b3\u30f3\u30af\u30fc\u30eb
p3777
aI1887
aa(lp3778
VDTX
p3779
aI1888
aa(lp3780
V\uff30\uff36
p3781
aI1889
aa(lp3782
V\u7530\u4e2d\u516c\u5e73
p3783
aI1890
aa(lp3784
V\u540d\u8a00
p3785
aI1891
aa(lp3786
V\u4f0a\u9054\u653f\u5b97(\u6226\u56fdBASARA)
p3787
aI1892
aa(lp3788
V\uff01\uff1f
p3789
aI1893
aa(lp3790
V\u30a8\u30eb\u30bd\u30fc\u30c9
p3791
aI1894
aa(lp3792
V\u30af\u30e9\u30c3\u30b7\u30e5
p3793
aI1895
aa(lp3794
VSOUNDHOLIC
p3795
aI1896
aa(lp3796
V\u5c0f\u897f\u514b\u5e78
p3797
aI1897
aa(lp3798
V\u30b9\u30e9\u30c3\u30d7
p3799
aI1898
aa(lp3800
V\u3082\u3063\u3068\u8a55\u4fa1\u3055\u308c\u308b\u3079\u304dAP\u30d8\u30bf\u30ea\u30a2
p3801
aI1899
aa(lp3802
V\u30b2\u30fc\u30e0CM
p3803
aI1900
aa(lp3804
V\u5e83\u5cf6
p3805
aI1901
aa(lp3806
V\u3051\u3044\u304a\u3093!
p3807
aI1902
aa(lp3808
V\u8336\u756a
p3809
aI1903
aa(lp3810
V\u30d5\u30ea\u30fc\u30c0\u30e0
p3811
aI1904
aa(lp3812
V\u539f\u7531\u5b9f
p3813
aI1905
aa(lp3814
V8bit
p3815
aI1906
aa(lp3816
V\u771f\u7f8e
p3817
aI1907
aa(lp3818
V\u307f\u304f\u307f\u304f\u306b\u3057\u3066\u3042\u3052\u308b\u266a
p3819
aI1908
aa(lp3820
V\u8cb4\u91cd\u6620\u50cf
p3821
aI1909
aa(lp3822
V\u64ec\u4eba\u5316
p3823
aI1910
aa(lp3824
V\u30d2\u30e3\u30c0\u30a4\u30f3
p3825
aI1911
aa(lp3826
V\u30c9\u30e9\u30a4\u30d6\u30ec\u30b3\u30fc\u30c0\u30fc
p3827
aI1912
aa(lp3828
V\u30a6\u30a4\u30cb\u30f3\u30b0\u30dd\u30b9\u30c8
p3829
aI1913
aa(lp3830
V\u30c0\u30fb\u30ab\u30fc\u30dd
p3831
aI1914
aa(lp3832
V\u30b3\u30f3\u30dc\u52d5\u753b
p3833
aI1915
aa(lp3834
V\u6dbc\u5bae\u30cf\u30eb\u30d2
p3835
aI1916
aa(lp3836
V\u4e16\u754c\u306e\u4ea4\u901a\u4e8b\u60c5
p3837
aI1917
aa(lp3838
Velona
p3839
aI1918
aa(lp3840
V\u795e\u52d5\u753b
p3841
aI1919
aa(lp3842
VNyanyanyanyanyanyanya!
p3843
aI1920
aa(lp3844
V\u6b4c\u3063\u3066\u307f\u305f\u6bbf\u5802\u5165\u308a
p3845
aI1921
aa(lp3846
VVOICEROID+_\u6c11\u5b89\u3068\u3082\u3048
p3847
aI1922
aa(lp3848
V\u30db\u30c3\u30c8\u30da\u30c3\u30d1\u30fc
p3849
aI1923
aa(lp3850
V\u30c1\u30fc\u30bf\u30fc\u30de\u30f3
p3851
aI1924
aa(lp3852
V\u306a\u305c\u304b\u524a\u9664\u3055\u308c\u306a\u3044\u30b7\u30ea\u30fc\u30ba
p3853
aI1925
aa(lp3854
VRemix
p3855
aI1926
aa(lp3856
V\u4e2d\u5b66\u751f
p3857
aI1927
aa(lp3858
V\u7d20\u4eba
p3859
aI1928
aa(lp3860
V\u4e0b\u7530\u9ebb\u7f8e
p3861
aI1929
aa(lp3862
VMMA
p3863
aI1930
aa(lp3864
V\u30ad\u30e8
p3865
aI1931
aa(lp3866
V\u30c0\u30d6\u30eb\u30af\u30ed\u30b9
p3867
aI1932
aa(lp3868
V\u3078\u3057\u5207\u9577\u8c37\u90e8(\u5200\u5263\u4e71\u821e)
p3869
aI1933
aa(lp3870
V\u624b\u306e\u8fbc\u3093\u3060\u624b\u629c\u304d
p3871
aI1934
aa(lp3872
V\u82b1\u306e\u6176\u6b21
p3873
aI1935
aa(lp3874
V\u30cb\u30b3\u30cb\u30b3\u5371\u967a\u5730\u5e2f
p3875
aI1936
aa(lp3876
VJazz
p3877
aI1937
aa(lp3878
V\u9280\u6cb3\u82f1\u96c4\u4f1d\u8aac
p3879
aI1938
aa(lp3880
V\u30a4\u30f3\u30b3
p3881
aI1939
aa(lp3882
V\u611f\u52d5\u306e\u30e9\u30b9\u30c8
p3883
aI1940
aa(lp3884
VFallout:NewVegas
p3885
aI1941
aa(lp3886
V\u307e\u3055\u306b\u5916\u9053
p3887
aI1942
aa(lp3888
V\u3086\u3081\u306b\u3063\u304d\u6d3e\u751f
p3889
aI1943
aa(lp3890
V\u30d1\u30c1\u30e5\u30ea\u30fc\u30fb\u30ce\u30fc\u30ec\u30c3\u30b8
p3891
aI1944
aa(lp3892
V\u5c0f\u6ca2\u4e00\u90ce
p3893
aI1945
aa(lp3894
V\u3046\u3048\u3060\u3086\u3046\u3058
p3895
aI1946
aa(lp3896
V\u30a4\u30ae\u30ea\u30b9
p3897
aI1947
aa(lp3898
V1Mbps
p3899
aI1948
aa(lp3900
V\u30d5\u30a1\u30d6\u30ea\u30fc\u30ba
p3901
aI1949
aa(lp3902
VMH3G
p3903
aI1950
aa(lp3904
V\u8aad\u58f2\u30b8\u30e3\u30a4\u30a2\u30f3\u30c4
p3905
aI1951
aa(lp3906
V\u5287\u5834\u7248
p3907
aI1952
aa(lp3908
V\u96fb\u5b50\u5de5\u4f5c
p3909
aI1953
aa(lp3910
V\u7a7a\u306e\u5883\u754c
p3911
aI1954
aa(lp3912
V\u552f\u6211
p3913
aI1955
aa(lp3914
V\u54b2-Saki-\u963f\u77e5\u8cc0\u7de8episodeofside-A
p3915
aI1956
aa(lp3916
V\u30a2\u30ea\u30b9
p3917
aI1957
aa(lp3918
VHR/HM
p3919
aI1958
aa(lp3920
V\u8179\u7b4b\u30d6\u30ec\u30a4\u30ab\u30fc
p3921
aI1959
aa(lp3922
V\u4f0a\u85e4\u8ce2\u6cbb
p3923
aI1960
aa(lp3924
V\u30b7\u30f3\u30c7\u30ec\u30e9\u30ac\u30fc\u30eb\u30ba(\u30a2\u30cb\u30e1)
p3925
aI1961
aa(lp3926
VQMA\u5916\u90e8\u51fa\u529b
p3927
aI1962
aa(lp3928
V\u4e2d\u7530\u30e4\u30b9\u30bf\u30ab
p3929
aI1963
aa(lp3930
VVOCALOID\u540d\u30ab\u30d0\u30fc\u66f2\u30ea\u30f3\u30af
p3931
aI1964
aa(lp3932
V\u30b5\u30b6\u30f3\u30aa\u30fc\u30eb\u30b9\u30bf\u30fc\u30ba
p3933
aI1965
aa(lp3934
V\u6355\u98df
p3935
aI1966
aa(lp3936
V\u30d0\u30fc\u30c1\u30e3\u30ed\u30f3
p3937
aI1967
aa(lp3938
V\u54b2-saki-
p3939
aI1968
aa(lp3940
V\u65e5\u672c\u4ee3\u8868
p3941
aI1969
aa(lp3942
VL'Arc\uff5een\uff5eCiel
p3943
aI1970
aa(lp3944
V\u521d\u5fc3\u8005
p3945
aI1971
aa(lp3946
VCAVE
p3947
aI1972
aa(lp3948
V\u30db\u30e2\u30ac\u30ad
p3949
aI1973
aa(lp3950
V\u30e9\u30f3\u30b9
p3951
aI1974
aa(lp3952
V\u6771\u5c71\u5948\u592e
p3953
aI1975
aa(lp3954
V\u5e83\u5cf6\u6771\u6d0b\u30ab\u30fc\u30d7
p3955
aI1976
aa(lp3956
V\u30a2\u30a4\u30de\u30b9\u516c\u5f0f\u66f2MAD
p3957
aI1977
aa(lp3958
V\u9ad8\u6a4b\u7f8e\u4f73\u5b50
p3959
aI1978
aa(lp3960
VYAMAHA
p3961
aI1979
aa(lp3962
VL4D2
p3963
aI1980
aa(lp3964
V\u30ca\u30a4\u30c8\u30e1\u30a2
p3965
aI1981
aa(lp3966
VLia
p3967
aI1982
aa(lp3968
V\u30c6\u30cb\u30df\u30e5MAD
p3969
aI1983
aa(lp3970
V\u6700\u7d42\u9b3c\u755c\u59b9\u30d5\u30e9\u30f3\u30c9\u30fc\u30eb\u30fbS
p3971
aI1984
aa(lp3972
V\u4ea1\u304d\u738b\u5973\u306e\u70ba\u306e\u30bb\u30d7\u30c6\u30c3\u30c8
p3973
aI1985
aa(lp3974
Vps3
p3975
aI1986
aa(lp3976
VR-TYPE
p3977
aI1987
aa(lp3978
V\u798f\u5c71\u82b3\u6a39
p3979
aI1988
aa(lp3980
V\u30d7\u30eb\u30b7\u30a7\u30f3\u30b3
p3981
aI1989
aa(lp3982
V\u304b\u305a\u306e\u3053(\u683c\u95d8\u30b2\u30fc\u30e0\u30d7\u30ec\u30a4\u30e4\u30fc)
p3983
aI1990
aa(lp3984
VMAD\u7d20\u6750
p3985
aI1991
aa(lp3986
V\u30a2\u30b5\u30b7\u30f3\u30af\u30ea\u30fc\u30c9
p3987
aI1992
aa(lp3988
V\u4e2d\u5cf6\u307f\u3086\u304d
p3989
aI1993
aa(lp3990
V\u30c7\u30c8\u30c3\u30af\u30b9\u30b8\u30e3\u30d1\u30f3
p3991
aI1994
aa(lp3992
V\u30c7\u30a3\u30ba\u30cb\u30fc\u97f3\u697d\u96c6
p3993
aI1995
aa(lp3994
V\u30b9\u30af\u6c34
p3995
aI1996
aa(lp3996
V\u611f\u52d5
p3997
aI1997
aa(lp3998
V\u7d30\u8c37\u4f73\u6b63
p3999
aI1998
aa(lp4000
V\u5353\u30b2\u7cfbAP\u30d8\u30bf\u30ea\u30a2
p4001
aI1999
aa(lp4002
V\u30a2\u30cf\u4f53\u9a13
p4003
aI2000
aa(lp4004
V\u4e00\u6642\u505c\u6b62\u63a8\u5968
p4005
aI2001
aa(lp4006
V\u91ce\u4e2d\u85cd
p4007
aI2002
aa(lp4008
V\u5fd7\u65b9\u3042\u304d\u3053
p4009
aI2003
aa(lp4010
V\u30bf\u30a4\u30c8\u30fc
p4011
aI2004
aa(lp4012
VBBCS2
p4013
aI2005
aa(lp4014
V\u4fee\u7f85\u5834
p4015
aI2006
aa(lp4016
V\u30b9\u30fc\u30d1\u30fc\u30de\u30ea\u30aa\u30e1\u30fc\u30ab\u30fc
p4017
aI2007
aa(lp4018
V\u30e9\u30f3\u30cb\u30f3\u30b0\u30de\u30f3
p4019
aI2008
aa(lp4020
V\u683c\u30b2\u30fc
p4021
aI2009
aa(lp4022
V\u98ef\u30c6\u30ed
p4023
aI2010
aa(lp4024
V\u6b4c\u8a5e\u4ed8\u304d
p4025
aI2011
aa(lp4026
V\u7d4c\u6e08
p4027
aI2012
aa(lp4028
V\u624b\u66f8\u304d\u9ed2\u30d0\u30b9
p4029
aI2013
aa(lp4030
V\u30b3\u30e1\uff1c\u30de\u30a4\u30ea\u30b9
p4031
aI2014
aa(lp4032
V\u305f\u304b\u306f\u3057\u667a\u79cb
p4033
aI2015
aa(lp4034
V\u30de\u30ea\u30aa\u30ab\u30fc\u30c8\uff18
p4035
aI2016
aa(lp4036
V\u65e5\u91ce\u8061
p4037
aI2017
aa(lp4038
V\u30b2\u30fc\u30e0\u30dc\u30fc\u30a4
p4039
aI2018
aa(lp4040
VRita
p4041
aI2019
aa(lp4042
V\u30d1\u30e9\u30ac\u30b9
p4043
aI2020
aa(lp4044
V\u30ed\u30fc\u30ea\u30f3\u30ac\u30fc\u30eb
p4045
aI2021
aa(lp4046
V\u304d\u304b\u3093\u3057\u3083\u30c8\u30fc\u30de\u30b9
p4047
aI2022
aa(lp4048
V\u30d5\u30e9\u30f3\u30b9
p4049
aI2023
aa(lp4050
V\u30a2\u30db\u306e\u5b50
p4051
aI2024
aa(lp4052
V\u30af\u30ed\u30ce\u30af\u30ed\u30b9
p4053
aI2025
aa(lp4054
VMMD\u30ef\u30f3\u30d4
p4055
aI2026
aa(lp4056
ViM@s\u67b6\u7a7a\u6226\u8a18\u30b7\u30ea\u30fc\u30ba
p4057
aI2027
aa(lp4058
V\u67ff\u539f\u5fb9\u4e5f
p4059
aI2028
aa(lp4060
V\u8010\u4e45\u52d5\u753b
p4061
aI2029
aa(lp4062
V\u897f\u884c\u5bfa\u5e7d\u3005\u5b50
p4063
aI2030
aa(lp4064
V\u58f0\u512a\u30e9\u30a4\u30d6
p4065
aI2031
aa(lp4066
V\u30a4\u30ca\u30ba\u30de\u30a4\u30ec\u30d6\u30f3GO
p4067
aI2032
aa(lp4068
V\u4e2d\u68ee\u660e\u83dc
p4069
aI2033
aa(lp4070
V\u4eee\u9762\u30e9\u30a4\u30c0\u30fc\u30aa\u30fc\u30ba
p4071
aI2034
aa(lp4072
V\u30b9\u30af\u30e9\u30a4\u30c9
p4073
aI2035
aa(lp4074
V\u30a8\u30ed\u30c0\u30f3\u30b9
p4075
aI2036
aa(lp4076
V\u30d4\u30ab\u30c1\u30e5\u30a6
p4077
aI2037
aa(lp4078
VMJ
p4079
aI2038
aa(lp4080
V\u85e4\u539f\u59b9\u7d05
p4081
aI2039
aa(lp4082
VACVD
p4083
aI2040
aa(lp4084
V\u3081\u3061\u3083\u30a4\u30b1
p4085
aI2041
aa(lp4086
V\u30d1\u30f3\u30e4
p4087
aI2042
aa(lp4088
V\u5c3b\u306e\u4eba
p4089
aI2043
aa(lp4090
V\u540c\u4eba
p4091
aI2044
aa(lp4092
V\u30a2\u30d3\u30b9
p4093
aI2045
aa(lp4094
V\u6771\u65b9\u30a2\u30ec\u30f3\u30b8PV\u30ea\u30f3\u30af
p4095
aI2046
aa(lp4096
V\u304a\u3063\u304f\u305b\u3093\u307e\u3093
p4097
aI2047
aa(lp4098
VBFBC2
p4099
aI2048
aa(lp4100
V\u30e4\u30e0\u30c1\u30e3\u8996\u70b9
p4101
aI2049
aa(lp4102
V\u9ce9\u5c71\u7531\u7d00\u592b
p4103
aI2050
aa(lp4104
V\u30c7\u30e5\u30a8\u30eb\u30de\u30b9\u30bf\u30fc\u30ba
p4105
aI2051
aa(lp4106
V\u30b2\u30b7\u30e5\u30bf\u30eb\u30c8\u5d29\u58ca
p4107
aI2052
aa(lp4108
V\u826f\u66f2
p4109
aI2053
aa(lp4110
V\u30b9\u30fc\u30d1\u30fc\u30de\u30ea\u30aaRPG
p4111
aI2054
aa(lp4112
V\u30e9\u30a4\u30aa\u30f3
p4113
aI2055
aa(lp4114
VDIE\u30b8\u30a7\u30b9\u30c8
p4115
aI2056
aa(lp4116
V\u97f3\u30b2\u30fc\u53f2\u6599
p4117
aI2057
aa(lp4118
V\u7121\u6599
p4119
aI2058
aa(lp4120
V\u4e95\u4e0a\u548c\u5f66
p4121
aI2059
aa(lp4122
V\u7a7a\u6761\u627f\u592a\u90ce
p4123
aI2060
aa(lp4124
V\u5b9f\u5199
p4125
aI2061
aa(lp4126
V\u5927\u4e71\u95d8\u30b9\u30de\u30c3\u30b7\u30e5\u30d6\u30e9\u30b6\u30fc\u30ba
p4127
aI2062
aa(lp4128
Vcaramelldansen
p4129
aI2063
aa(lp4130
V\u604b\u59eb\u2020\u7121\u53cc
p4131
aI2064
aa(lp4132
V\u6a5f\u52d5\u6226\u8266\u30ca\u30c7\u30b7\u30b3
p4133
aI2065
aa(lp4134
V\u4e09\u4e0a\u679d\u7e54
p4135
aI2066
aa(lp4136
V\u5fb3\u4e95\u9752\u7a7a
p4137
aI2067
aa(lp4138
V\u685c\u5ead\u7d71
p4139
aI2068
aa(lp4140
V\u30b9\u30bf\u30fc\u30aa\u30fc\u30b7\u30e3\u30f3
p4141
aI2069
aa(lp4142
V\u30d4\u30c3\u30c1\u4e0a\u3052
p4143
aI2070
aa(lp4144
V\u30d0\u30c3\u30c8\u30de\u30f3
p4145
aI2071
aa(lp4146
V\u5fa1\u5742\u7f8e\u7434
p4147
aI2072
aa(lp4148
V\u5742\u672c\u9f8d\u4e00
p4149
aI2073
aa(lp4150
V\u5168\u304f\u6c17\u4ed8\u304b\u306a\u3044\u3046\u3061\u306b\u25cb\u25cb\u306b\u306a\u308b\u30b7\u30ea\u30fc\u30ba
p4151
aI2074
aa(lp4152
V\u30b7\u30c9
p4153
aI2075
aa(lp4154
ViPhone
p4155
aI2076
aa(lp4156
V\u30de\u30fc\u30bb\u30ca\u30ea\u30fc\u30ba
p4157
aI2077
aa(lp4158
VOmankoYaro
p4159
aI2078
aa(lp4160
V\u30ec\u30a2\u69d8
p4161
aI2079
aa(lp4162
V\u6843\u592a\u90ce\u96fb\u9244
p4163
aI2080
aa(lp4164
V\u541b\u306e\u77e5\u3089\u306a\u3044\u7269\u8a9e
p4165
aI2081
aa(lp4166
VVOCALOID\u30a2\u30ec\u30f3\u30b8\u66f2
p4167
aI2082
aa(lp4168
V\u304a\u304a\u304d\u304f\u632f\u308a\u304b\u3076\u3063\u3066
p4169
aI2083
aa(lp4170
V\u30a2\u30c8\u30ea\u30a8\u30b7\u30ea\u30fc\u30ba
p4171
aI2084
aa(lp4172
V\u3072\u3068\u3053\u3068\u52d5\u753b
p4173
aI2085
aa(lp4174
V\u7530\u4e2d\u7406\u6075
p4175
aI2086
aa(lp4176
V\u6cb3\u57ce\u306b\u3068\u308a
p4177
aI2087
aa(lp4178
V\u7af6\u8247
p4179
aI2088
aa(lp4180
VDJ
p4181
aI2089
aa(lp4182
VJC
p4183
aI2090
aa(lp4184
Vwlw
p4185
aI2091
aa(lp4186
V\u30ea\u30a2\u30eb\u30bf\u30a4\u30e0\u30a2\u30bf\u30c3\u30afPart1\u30ea\u30f3\u30af
p4187
aI2092
aa(lp4188
V\u30d6\u30e9\u30c3\u30c9\u30dc\u30fc\u30f3
p4189
aI2093
aa(lp4190
V\u5185\u7530\u771f\u793c
p4191
aI2094
aa(lp4192
V\u30f4\u30a1\u30f3\u30ac\u30fc\u30c9\u5bfe\u6226\u52d5\u753b
p4193
aI2095
aa(lp4194
V\u30a2\u30f3\u30b0\u30e9\u30a2\u30cb\u30bd\u30f3Remix\u30ea\u30f3\u30af
p4195
aI2096
aa(lp4196
V\u30b9\u30ec\u30a4\u30e4\u30fc\u30ba
p4197
aI2097
aa(lp4198
V\u30ab\u30b2\u30ed\u30a6\u30d7\u30ed\u30b8\u30a7\u30af\u30c8
p4199
aI2098
aa(lp4200
V\u904a\u4f50\u6d69\u4e8c
p4201
aI2099
aa(lp4202
V\u7d9a\u7de8\u5e0c\u671b
p4203
aI2100
aa(lp4204
V\u30c7\u30c3\u30c9\u30e9\u30a4\u30b8\u30f3\u30b0
p4205
aI2101
aa(lp4206
V\u58c1\u7d19
p4207
aI2102
aa(lp4208
V\u304a\uff57
p4209
aI2103
aa(lp4210
VGCB
p4211
aI2104
aa(lp4212
V\u6620\u753bPart1\u96c6
p4213
aI2105
aa(lp4214
V\u5c0f\u5c71\u529b\u4e5f
p4215
aI2106
aa(lp4216
VJR\u897f\u65e5\u672c
p4217
aI2107
aa(lp4218
VBASARALOID
p4219
aI2108
aa(lp4220
V\u30cc\u30ad
p4221
aI2109
aa(lp4222
V\u30b2\u30fc\u30bd\u30f3
p4223
aI2110
aa(lp4224
V\u30bd\u30ed\u30ae\u30bf\u30fc
p4225
aI2111
aa(lp4226
V\u795e\u30bf\u30a4\u30c8\u30eb
p4227
aI2112
aa(lp4228
V\u30e9\u30f3\u30ab\u30fb\u30ea\u30fc
p4229
aI2113
aa(lp4230
VNBA
p4231
aI2114
aa(lp4232
V\u30c9\u30c3\u30c8\u7d75
p4233
aI2115
aa(lp4234
VSDGO
p4235
aI2116
aa(lp4236
V\u516c\u5f0f
p4237
aI2117
aa(lp4238
V\u30aa\u30eb\u30b4\u30fc\u30eb
p4239
aI2118
aa(lp4240
V\u5207\u306a\u3044\u30df\u30af\u3046\u305f
p4241
aI2119
aa(lp4242
V\u30b7\u30e7\u30bf\u30b3\u30f3\u30db\u30a4\u30db\u30a4
p4243
aI2120
aa(lp4244
V\u30cf\u30fc\u30c9\u30b3\u30a2
p4245
aI2121
aa(lp4246
VK-1
p4247
aI2122
aa(lp4248
VGirls(EasyPop)
p4249
aI2123
aa(lp4250
V\u4e88\u544a
p4251
aI2124
aa(lp4252
V\u691c\u8a3c\u52d5\u753b
p4253
aI2125
aa(lp4254
VJAZZ
p4255
aI2126
aa(lp4256
VCOD:BO2
p4257
aI2127
aa(lp4258
V\u8056\u5263\u4f1d\u8aac
p4259
aI2128
aa(lp4260
VLUNASEA
p4261
aI2129
aa(lp4262
V\u30d5\u30e9\u30b0\u30e0\u30fc\u30d3\u30fc
p4263
aI2130
aa(lp4264
VCOD4
p4265
aI2131
aa(lp4266
V\u30c6\u30a4\u30eb\u30ba\u30aa\u30d6\u30c7\u30b9\u30c6\u30a3\u30cb\u30fc
p4267
aI2132
aa(lp4268
V\u30c6\u30a4\u30eb\u30ba\u30aa\u30d6\u30b0\u30ec\u30a4\u30bb\u30b9
p4269
aI2133
aa(lp4270
VBUMP_OF_CHICKEN
p4271
aI2134
aa(lp4272
V\u30b9\u30bf\u30fc\u30c0\u30b9\u30c8\u30af\u30eb\u30bb\u30a4\u30c0\u30fc\u30b9
p4273
aI2135
aa(lp4274
V\u7d76\u53eb\u6ce8\u610f
p4275
aI2136
aa(lp4276
V\u7d0b\u7ae0\u306e\u8b0e
p4277
aI2137
aa(lp4278
V\u304c\u3063\u3053\u3046\u3050\u3089\u3057\uff01
p4279
aI2138
aa(lp4280
V\u30a8\u30ed\u30b2\u30fc
p4281
aI2139
aa(lp4282
V\u672a\u6765\u65e5\u8a18
p4283
aI2140
aa(lp4284
VMOTHER
p4285
aI2141
aa(lp4286
V\u611b\u3059\u3079\u304d\u30d0\u30ab
p4287
aI2142
aa(lp4288
V\u5bae\u7530\u5e78\u5b63
p4289
aI2143
aa(lp4290
V\u80f8\u56f2\u306e\u683c\u5dee\u793e\u4f1a
p4291
aI2144
aa(lp4292
VBEMANI
p4293
aI2145
aa(lp4294
VMikuMikudance
p4295
aI2146
aa(lp4296
V\u9ad8\u7530\u5065\u5fd7
p4297
aI2147
aa(lp4298
V\u6625\u9999\u3068\u5c0f\u9ce5\u306e\u6687\u3064\u3076\u3057
p4299
aI2148
aa(lp4300
V\u88c5\u7532\u9a0e\u5175\u30dc\u30c8\u30e0\u30ba
p4301
aI2149
aa(lp4302
V\u3082\u3046\u30ed\u30ea\u30b3\u30f3\u3067\u3044\u3044\u3084
p4303
aI2150
aa(lp4304
V\u4e09\u6a4b\u8cb4\u660e
p4305
aI2151
aa(lp4306
V\u5c0f\u677e\u672a\u53ef\u5b50
p4307
aI2152
aa(lp4308
V\u6f14\u6b66\u5834
p4309
aI2153
aa(lp4310
V\u30f4\u30a1\u30eb\u30ad\u30ea\u30fc\u30d7\u30ed\u30d5\u30a1\u30a4\u30eb
p4311
aI2154
aa(lp4312
V\u30ac\u30c3\u30c4\u30dd\u30fc\u30ba\u6deb\u5922\u304f\u3093\u30b7\u30ea\u30fc\u30ba
p4313
aI2155
aa(lp4314
V\u6771\u4eac\u30c7\u30a3\u30ba\u30cb\u30fc\u30e9\u30f3\u30c9
p4315
aI2156
aa(lp4316
V\u904a\u622f\u738bZEXAL
p4317
aI2157
aa(lp4318
V\u6771\u65b9\u5730\u970a\u6bbf
p4319
aI2158
aa(lp4320
V\u30e1\u30a4\u30c9\u30a4\u30f3\u4ffa
p4321
aI2159
aa(lp4322
V\u30b8\u30e3\u30f3\u30fb\u30ad\u30eb\u30b7\u30e5\u30bf\u30a4\u30f3
p4323
aI2160
aa(lp4324
V\u5965\u83ef\u5b50
p4325
aI2161
aa(lp4326
V\u4e2d\u4e8c\u75c5\u3067\u3082\u604b\u304c\u3057\u305f\u3044\uff01
p4327
aI2162
aa(lp4328
V100\u5206\u8d85\u3048BGM
p4329
aI2163
aa(lp4330
V\u672c\u7de8\u6539\u9020\u6deb\u5922
p4331
aI2164
aa(lp4332
V\u305d\u3057\u3066\u3053\u306e\u9854\u3067\u3042\u308b
p4333
aI2165
aa(lp4334
V\u83c5\u76f4\u4eba
p4335
aI2166
aa(lp4336
V\u30a2\u30a4\u30c9\u30eb\u30de\u30b9\u30bf\u30fcSP
p4337
aI2167
aa(lp4338
V\u3068\u304d\u30e1\u30e2GS2
p4339
aI2168
aa(lp4340
V\uff2d\uff28\uff26
p4341
aI2169
aa(lp4342
V\u30e9\u30d6\u30e9\u30a4\u30d6
p4343
aI2170
aa(lp4344
V\u30a6\u30a3\u30b6\u30fc\u30c9\u30ea\u30a3
p4345
aI2171
aa(lp4346
V\u30a2\u30ca\u3068\u96ea\u306e\u5973\u738b
p4347
aI2172
aa(lp4348
V\u79d8\u5c01\u5036\u697d\u90e8
p4349
aI2173
aa(lp4350
VDAM&amp;JOY\u914d\u4fe1\u4e2d
p4351
aI2174
aa(lp4352
V\u5730\u970a\u6bbf
p4353
aI2175
aa(lp4354
V\u65b0\u5e79\u7dda
p4355
aI2176
aa(lp4356
V\u5343\u8449\u30ed\u30c3\u30c6\u30de\u30ea\u30fc\u30f3\u30ba
p4357
aI2177
aa(lp4358
V\u307e\u3093\u304c\u65e5\u672c\u6614\u3070\u306a\u3057
p4359
aI2178
aa(lp4360
V\u6d45\u5009\u5927\u4ecb
p4361
aI2179
aa(lp4362
VMGSPW
p4363
aI2180
aa(lp4364
V\u30c0\u30d6\u30eb\u30e9\u30ea\u30a2\u30c3\u30c8
p4365
aI2181
aa(lp4366
V\u30cd\u30a4\u30c6\u30a3\u30d6\u30d5\u30a7\u30a4\u30b9
p4367
aI2182
aa(lp4368
V\u304f\u3055\u307e\u3089
p4369
aI2183
aa(lp4370
VVocaloid
p4371
aI2184
aa(lp4372
V\u6d25\u7530\u7f8e\u6ce2
p4373
aI2185
aa(lp4374
V\u30b5\u30df\u30bf
p4375
aI2186
aa(lp4376
V\u30b9\u30bf\u30db
p4377
aI2187
aa(lp4378
V\u6b4c\u308f\u305b\u3066\u307f\u305f
p4379
aI2188
aa(lp4380
V\u4eee\u9762\u30e9\u30a4\u30c0\u30fc\u30c7\u30a3\u30b1\u30a4\u30c9
p4381
aI2189
aa(lp4382
V\u30d5\u30a7\u30c1
p4383
aI2190
aa(lp4384
Vsyamu_game
p4385
aI2191
aa(lp4386
V\u65e5\u5e38MAD\u30ea\u30f3\u30af
p4387
aI2192
aa(lp4388
V\u3044\u30fc\u3042\u308b\u3075\u3041\u3093\u304f\u3089\u3076
p4389
aI2193
aa(lp4390
VACMAD
p4391
aI2194
aa(lp4392
V\u6771\u65b9MIDI
p4393
aI2195
aa(lp4394
V\u540d\u52dd\u8ca0
p4395
aI2196
aa(lp4396
Vfate
p4397
aI2197
aa(lp4398
V\u6717\u8aad\u3057\u3066\u307f\u305f
p4399
aI2198
aa(lp4400
VLIVEALIVE
p4401
aI2199
aa(lp4402
VCOD:BO
p4403
aI2200
aa(lp4404
V\u6771\u65b9\uff14\u30b3\u30de
p4405
aI2201
aa(lp4406
V\u5371\u967a\u306a\u25cb\u25cb\u30b7\u30ea\u30fc\u30ba
p4407
aI2202
aa(lp4408
V\u30b8\u30e7\u30b8\u30e7ASB\u5bfe\u6226\u52d5\u753b
p4409
aI2203
aa(lp4410
V\u304d\u3085\u3063\u304d\u3085\u3063\u304d\u3085\u3063\u30cb\u30e3\u30fc
p4411
aI2204
aa(lp4412
VGO_MY_WAY!!
p4413
aI2205
aa(lp4414
V\u6c34\u9280\u71c8
p4415
aI2206
aa(lp4416
V\u68d2\u6b4c\u30ed\u30a4\u30c9
p4417
aI2207
aa(lp4418
V\u3069\u3046\u3076\u3064\u306e\u68ee
p4419
aI2208
aa(lp4420
V\u30ad\u30df\u30ad\u30b9
p4421
aI2209
aa(lp4422
V\u4e71\u5c04\u9b54
p4423
aI2210
aa(lp4424
VUMVC3\u5bfe\u6226\u52d5\u753b
p4425
aI2211
aa(lp4426
V\u4f50\u85e4\u8061\u7f8e
p4427
aI2212
aa(lp4428
V\u30d5\u30a3\u30c3\u30b7\u30f3\u30b0
p4429
aI2213
aa(lp4430
VSchoolDays
p4431
aI2214
aa(lp4432
VTA
p4433
aI2215
aa(lp4434
V\u68ee\u7530\u6210\u4e00
p4435
aI2216
aa(lp4436
VDL\u53ef\u80fd\u826f\u66f2\u96c6
p4437
aI2217
aa(lp4438
V\u30b0\u30e9\u30d3\u30a2\u30a2\u30a4\u30c9\u30eb
p4439
aI2218
aa(lp4440
V\u30ab\u30ec\u30fc
p4441
aI2219
aa(lp4442
V\u521d\u898b
p4443
aI2220
aa(lp4444
V\u30b9\u30bf\u30fc\u30db\u30fc\u30b9
p4445
aI2221
aa(lp4446
V\u6bd4\u8f03\uff1a\u518d\u73feMAD
p4447
aI2222
aa(lp4448
V\u751f\u5929\u76ee\u4ec1\u7f8e
p4449
aI2223
aa(lp4450
VMinecraft\u5efa\u7bc9\u90e8
p4451
aI2224
aa(lp4452
V\u30ac\u30f3\u30b7\u30e5\u30fc\u30c6\u30a3\u30f3\u30b0
p4453
aI2225
aa(lp4454
V\u6d77\u5916
p4455
aI2226
aa(lp4456
V\u30de\u30eb\u30c1\u30d7\u30ec\u30a4
p4457
aI2227
aa(lp4458
VMikuMikuDance\u6bbf\u5802\u5165\u308a
p4459
aI2228
aa(lp4460
VFree!
p4461
aI2229
aa(lp4462
V\u4f0a\u9054\u653f\u5b97\uff08\u6226\u56fdBASARA\uff09
p4463
aI2230
aa(lp4464
V\u306f\u308b\u3061\u306f
p4465
aI2231
aa(lp4466
V\u53f0\u7063
p4467
aI2232
aa(lp4468
V\u6226\u56fd\u30e9\u30f3\u30b9
p4469
aI2233
aa(lp4470
VA.V.A
p4471
aI2234
aa(lp4472
V\u5fa9/\u6d3bBL\u30ea\u30f3\u30af
p4473
aI2235
aa(lp4474
V\u5e73\u5ddd\u5927\u8f14
p4475
aI2236
aa(lp4476
VRKRN\u624b\u63cf\u304d
p4477
aI2237
aa(lp4478
V\u30d9\u30e8\u30cd\u30c3\u30bf
p4479
aI2238
aa(lp4480
VAP\u30d8\u30bf\u30ea\u30a2\u4f0a\u592a\u5229\u4e9c\u30ea\u30f3\u30af
p4481
aI2239
aa(lp4482
VBloodborne
p4483
aI2240
aa(lp4484
V\u30ac\u30f3\u30e9\u30f3\u30b9
p4485
aI2241
aa(lp4486
V\u30ac\u30b9\u30c8
p4487
aI2242
aa(lp4488
V\u30ef\u30fc\u30eb\u30c9\u30ab\u30c3\u30d7
p4489
aI2243
aa(lp4490
V\u25cb\u25cb\u306e\u30ad\u30e3\u30e9\u304c\u30ab\u30e9\u30aa\u30b1\u306b\u884c\u304f\u3068\u30b7\u30ea\u30fc\u30ba
p4491
aI2244
aa(lp4492
V\u30c6\u30a4\u30eb\u30ba\u30aa\u30d6\u30a8\u30af\u30b7\u30ea\u30a2
p4493
aI2245
aa(lp4494
Vcapsule
p4495
aI2246
aa(lp4496
V\u305f\u308c\u305e\u3046
p4497
aI2247
aa(lp4498
VUC
p4499
aI2248
aa(lp4500
V\u9032\u6483\u306e\u5de8\u4ebaOP\u30d1\u30ed
p4501
aI2249
aa(lp4502
VSDVX_II
p4503
aI2250
aa(lp4504
V\u7b2c2\u6b21\u30b9\u30fc\u30d1\u30fc\u30ed\u30dc\u30c3\u30c8\u5927\u6226Z
p4505
aI2251
aa(lp4506
VMMD\u30e6\u30fc\u30b6\u30fc\u30e2\u30c7\u30eb(\u30b2\u30fc\u30e0\u95a2\u9023)
p4507
aI2252
aa(lp4508
V\u4ea4\u901a\u4e8b\u6545
p4509
aI2253
aa(lp4510
V\u6e0b\u8c37\u306e\u30ad\u30f3\u30b0
p4511
aI2254
aa(lp4512
V\u5148\u751f\u4f55\u3084\u3063\u3066\u3093\u3059\u304b\u30b7\u30ea\u30fc\u30ba
p4513
aI2255
aa(lp4514
V\u6771\u5317\u305a\u3093\u5b50
p4515
aI2256
aa(lp4516
Vangela
p4517
aI2257
aa(lp4518
V\u9999\u5ddd\u771f\u53f8
p4519
aI2258
aa(lp4520
V\u75f4\u8c5a
p4521
aI2259
aa(lp4522
VMy_Little_Pony
p4523
aI2260
aa(lp4524
VHELLSING
p4525
aI2261
aa(lp4526
V\u30b5\u30e2\u30f3\u30ca\u30a4\u30c8
p4527
aI2262
aa(lp4528
V\u4eee\u9762\u30e9\u30a4\u30c0\u30fc\u96fb\u738b
p4529
aI2263
aa(lp4530
V\u97f3\u30ba\u30ec\u306e\u8a2a\u308c
p4531
aI2264
aa(lp4532
V\u30c6\u30c8\u30ea\u30b9
p4533
aI2265
aa(lp4534
V\u30a2\u30d6
p4535
aI2266
aa(lp4536
V\u30b7\u30f3\u30af\u30ed\u7387400%
p4537
aI2267
aa(lp4538
V\u30dd\u30ed\u30ea\u3082\u3042\u308b\u3088
p4539
aI2268
aa(lp4540
V\u30b3\u30df\u30b1
p4541
aI2269
aa(lp4542
V\u3082\u3063\u3068\u9032\u6483\u3055\u308c\u308b\u3079\u304d
p4543
aI2270
aa(lp4544
V\u30ab\u30fc\u30c9\u30ad\u30e3\u30d7\u30bf\u30fc\u3055\u304f\u3089
p4545
aI2271
aa(lp4546
V\u6a2a\u6d5c\u30d9\u30a4\u30b9\u30bf\u30fc\u30ba
p4547
aI2272
aa(lp4548
V\u30b3\u30de\u30f3\u30c9\u30fc
p4549
aI2273
aa(lp4550
V\u30d0\u30fc\u30ed\u30fc
p4551
aI2274
aa(lp4552
V\u30d1\u30f3\u30c0\u30d2\u30fc\u30ed\u30fc
p4553
aI2275
aa(lp4554
V\u6ce3\u3051\u308b\u6deb\u5922
p4555
aI2276
aa(lp4556
VBB-\u5168\u56fd\u5bfe\u6226\u4ee5\u5916
p4557
aI2277
aa(lp4558
V\u30b0\u30e9\u30f3\u30d6\u30eb\u30fc\u30d5\u30a1\u30f3\u30bf\u30b8\u30fc
p4559
aI2278
aa(lp4560
V\u306d\u3001\u7c21\u5358\u3067\u3057\u3087\u3046\uff1f
p4561
aI2279
aa(lp4562
V\u30c9\u30e9\u30af\u30a8\uff13
p4563
aI2280
aa(lp4564
V\u30d0\u30eb\u30c9\u30b9\u30ab\u30a4
p4565
aI2281
aa(lp4566
V\u6771\u897f\u6226
p4567
aI2282
aa(lp4568
V\u8266\u3053\u308cMMD\u30c9\u30e9\u30de
p4569
aI2283
aa(lp4570
V\u30a2\u30a4\u30c9\u30eb\u30de\u30b9\u30bf\u30fc\uff24\uff33
p4571
aI2284
aa(lp4572
ViM@S\u30b3\u30df\u30e5
p4573
aI2285
aa(lp4574
V\u5b9f\u6a5f\u914d\u4fe1
p4575
aI2286
aa(lp4576
VVOCALOID\u65b0\u66f2\u30ea\u30f3\u30af
p4577
aI2287
aa(lp4578
V\u30ad\u30ea\u30f3
p4579
aI2288
aa(lp4580
V\u30b9\u30c82
p4581
aI2289
aa(lp4582
V\u6771\u65b9\u661f\u84ee\u8239
p4583
aI2290
aa(lp4584
V\u3053\u308c\u306f\u9177\u3044
p4585
aI2291
aa(lp4586
V\u30ad\u30e9\u30e1\u30ad\u30e9\u30ea
p4587
aI2292
aa(lp4588
V\u63a2\u3057\u3066\u3044\u305f\u3042\u306e\u66f2
p4589
aI2293
aa(lp4590
V\u30c9\u30fc\u30ca\u30c4\u30db\u30fc\u30eb
p4591
aI2294
aa(lp4592
V\u30de\u30a4\u30ea\u30b9\u5de1\u56de\u63a8\u5968
p4593
aI2295
aa(lp4594
V\u30a2\u30a6\u30c8\u30c9\u30a2
p4595
aI2296
aa(lp4596
V\u7f8e\u58f0
p4597
aI2297
aa(lp4598
V\u30a2\u30b8\u30ab\u30f3
p4599
aI2298
aa(lp4600
V\u30e9\u30fc\u30e1\u30f3
p4601
aI2299
aa(lp4602
V\u30dc\u30fc\u30c9\u30b2\u30fc\u30e0
p4603
aI2300
aa(lp4604
V\u8336\u592a
p4605
aI2301
aa(lp4606
V\u305a\u3063\u3068\u4ffa\u306e\u30bf\u30fc\u30f3
p4607
aI2302
aa(lp4608
VAP\u30d8\u30bf\u30ea\u30a2\u5cf6\u56fd\u540c\u76df
p4609
aI2303
aa(lp4610
V\u307d\u3063\u3074\u3063\u307d\u30fc
p4611
aI2304
aa(lp4612
V\u885d\u6483\u6620\u50cf
p4613
aI2305
aa(lp4614
V\u4e0d\u601d\u8b70\u306e\u30c0\u30f3\u30b8\u30e7\u30f3
p4615
aI2306
aa(lp4616
VHALO
p4617
aI2307
aa(lp4618
V\u6771\u65b9\u624b\u63cf\u304d\u4e00\u767a\u30cd\u30bf
p4619
aI2308
aa(lp4620
V\u96a0\u308c\u305f\u540d\u4f5c
p4621
aI2309
aa(lp4622
V\u30e9\u30d6\u30e9\u30a4\u30d6\uff01MAD
p4623
aI2310
aa(lp4624
V\u6771\u65b9\u30cf\u30fc\u30c8\u30d5\u30eb\u7269\u8a9e
p4625
aI2311
aa(lp4626
V\u5927\u5263
p4627
aI2312
aa(lp4628
V\u6bdb\u5229\u5143\u5c31\uff08\u6226\u56fdBASARA\uff09
p4629
aI2313
aa(lp4630
V\u3086\u3063\u304f\u308a\u8eca\u8f09
p4631
aI2314
aa(lp4632
V\u30a4\u30f3\u30c9
p4633
aI2315
aa(lp4634
VProjectDIVAArcade\u96e3\u6613\u5ea6EXTREME
p4635
aI2316
aa(lp4636
V\u9854\u51fa\u3057
p4637
aI2317
aa(lp4638
V\u30d4\u30bf\u30b4\u30e9\u30b9\u30a4\u30c3\u30c1
p4639
aI2318
aa(lp4640
V\u8d85\u9ad8\u6821\u7d1a\u306e\u30cd\u30bf\u30d0\u30ec
p4641
aI2319
aa(lp4642
V\u30d1\u30f3\u30af
p4643
aI2320
aa(lp4644
VKOF13
p4645
aI2321
aa(lp4646
V\u306a\u305c\u6d88\u3057\u305f\u3057
p4647
aI2322
aa(lp4648
V\u5f93\u8ecd\u6170\u5b89\u5a66
p4649
aI2323
aa(lp4650
V\u30ad\u30e9\u30c3\u2606
p4651
aI2324
aa(lp4652
VMMORPG
p4653
aI2325
aa(lp4654
VDo-Dai
p4655
aI2326
aa(lp4656
V\u6f2b\u624d
p4657
aI2327
aa(lp4658
V\u5c71\u53e3\u52dd\u5e73
p4659
aI2328
aa(lp4660
V\u3057\u3093\u3059\u3051
p4661
aI2329
aa(lp4662
V\u7089\u5fc3\u878d\u89e3
p4663
aI2330
aa(lp4664
V\u9ed2\u30bf\u30a4\u30c4
p4665
aI2331
aa(lp4666
VUFO\u30ad\u30e3\u30c3\u30c1\u30e3\u30fc
p4667
aI2332
aa(lp4668
V\u6771\u4eac\u5409\u672c
p4669
aI2333
aa(lp4670
V\u30b8\u30f3
p4671
aI2334
aa(lp4672
V\u30cb\u30c8\u30ed\u30d7\u30e9\u30b9
p4673
aI2335
aa(lp4674
V\u6771\u65b9\u975e\u60f3\u5929\u5247
p4675
aI2336
aa(lp4676
VVOICEROID+_\u7434\u8449_\u831c\u30fb\u8475
p4677
aI2337
aa(lp4678
V\u30cf\u30f3\u30de\u30fc
p4679
aI2338
aa(lp4680
V\u66ff\u3048\u6b4c\u6b74\u53f2\u30b7\u30ea\u30fc\u30ba
p4681
aI2339
aa(lp4682
V\u304b\u307e\u3044\u305f\u3061\u306e\u591c
p4683
aI2340
aa(lp4684
V\u30b3\u30f3\u30d1\u30a4\u30eb
p4685
aI2341
aa(lp4686
V\u3081\u305e\u3093\u4e00\u523b
p4687
aI2342
aa(lp4688
V\u6d45\u5009\u674f\u7f8e
p4689
aI2343
aa(lp4690
V\u30d9\u30b9\u30c8\u30a8\u30ed\u30b2\u30ea\u30f3\u30af
p4691
aI2344
aa(lp4692
VDJ_YOSHITAKA
p4693
aI2345
aa(lp4694
Vperfume
p4695
aI2346
aa(lp4696
V\u5927\u69fb\u30b1\u30f3\u30c2
p4697
aI2347
aa(lp4698
V\u4e39\u4e0b\u685c
p4699
aI2348
aa(lp4700
V\u77f3\u9e78\u5c4b
p4701
aI2349
aa(lp4702
V\u308f\u3093\u308f\u3093\u52d5\u753b
p4703
aI2350
aa(lp4704
VSF
p4705
aI2351
aa(lp4706
V\u6700\u904a\u8a18
p4707
aI2352
aa(lp4708
V\u30b9\u30af\u30fc\u30eb\u30a2\u30a4\u30c9\u30eb\u30d5\u30a7\u30b9\u30c6\u30a3\u30d0\u30eb
p4709
aI2353
aa(lp4710
V\u5317\u6d77\u9053\u30d0\u30a4\u30af\u30c4\u30fc\u30ea\u30f3\u30b0
p4711
aI2354
aa(lp4712
V\u6771\u4eac\u55b0\u7a2e
p4713
aI2355
aa(lp4714
V\u6708\u7d44
p4715
aI2356
aa(lp4716
V\u30e9\u30b8\u30b3\u30f3
p4717
aI2357
aa(lp4718
V\u9031\u520a\u5c11\u5e74\u30b8\u30e3\u30f3\u30d7
p4719
aI2358
aa(lp4720
V\u30a2\u30b9\u30ab\u898b\u53c2
p4721
aI2359
aa(lp4722
V\u6a58\u7530\u3044\u305a\u307f
p4723
aI2360
aa(lp4724
V\u7279\u64ae\u97f3\u697d
p4725
aI2361
aa(lp4726
V\u6bba\u4eba\u6bdb\u7389
p4727
aI2362
aa(lp4728
V\u5168\u56fd\u30e9\u30f3\u30ab\u30fc\u6c7a\u6226
p4729
aI2363
aa(lp4730
V\u6771\u65b9\u4e0a\u7d1a\u8005\u5411\u3051\u30ea\u30f3\u30af
p4731
aI2364
aa(lp4732
V\u91ce\u3005\u6751\u7adc\u592a\u90ce
p4733
aI2365
aa(lp4734
V\u30a8\u30ed\u6c34\u7740
p4735
aI2366
aa(lp4736
V\u30ed\u30de\u30b5\u30ac\uff13
p4737
aI2367
aa(lp4738
V\u5510\u6fa4\u8cb4\u6d0b
p4739
aI2368
aa(lp4740
V\u5927\u5036\u5229\u4f3d\u7f85(\u5200\u5263\u4e71\u821e)
p4741
aI2369
aa(lp4742
V\u6c34\u7740\u3060\u304b\u3089\u6065\u305a\u304b\u3057\u304f\u306a\u3044\u3082\u3093
p4743
aI2370
aa(lp4744
V\u30a2\u30cb\u30e1\u30ab\u30fc\u30d3\u30a3
p4745
aI2371
aa(lp4746
VMAD\u30a2\u30a4\u30de\u30b9PV
p4747
aI2372
aa(lp4748
V\u3086\u305a
p4749
aI2373
aa(lp4750
V\u30cf\u30d7\u30cb\u30f3\u30b0
p4751
aI2374
aa(lp4752
VNMB48
p4753
aI2375
aa(lp4754
V\u307e\u308b\u304b\u3044\u3066\u5730\u7403
p4755
aI2376
aa(lp4756
V\u624b\u66f8\u304dAPH
p4757
aI2377
aa(lp4758
V\u5f13
p4759
aI2378
aa(lp4760
V\u30cf\u30f3\u30de\u30fc\u72b6\u614b
p4761
aI2379
aa(lp4762
VVOCALOID\u6c11\u65cf\u8abf\u66f2
p4763
aI2380
aa(lp4764
V\u30d0\u30f3\u30d6\u30fc\u30d6\u30ec\u30fc\u30c9
p4765
aI2381
aa(lp4766
V\u3064\u3088\u304d\u3059
p4767
aI2382
aa(lp4768
V\u30dc\u30ab\u30ed\u30ab\u30e9\u30aa\u30b1\uff24\uff22
p4769
aI2383
aa(lp4770
V\u30d0\u30a4\u30aa\u30cf\u30b6\u30fc\u30c96
p4771
aI2384
aa(lp4772
V\u30d7\u30ed\u30b0\u30e9\u30df\u30f3\u30b0
p4773
aI2385
aa(lp4774
V\u3077\u3088\u3077\u3088\u901a
p4775
aI2386
aa(lp4776
VGO!GO!MANIAC
p4777
aI2387
aa(lp4778
V\u305d\u3046\u3044\u3046\u30b2\u30fc\u30e0\u3058\u3083\u306d\u3048\u304b\u3089\u3053\u308c\uff01
p4779
aI2388
aa(lp4780
V\u2642\u2640!
p4781
aI2389
aa(lp4782
V\u7dcf\u5e2b\u7bc4KSK
p4783
aI2390
aa(lp4784
V\u30b1\u30ed\u30ed\u8ecd\u66f9
p4785
aI2391
aa(lp4786
V\u305d\u3089\u308b
p4787
aI2392
aa(lp4788
V\u521d\u97f3\u30df\u30af\u306e\u6d88\u5931
p4789
aI2393
aa(lp4790
V\u795e\u8056\u304b\u307e\u3063\u3066\u3061\u3083\u3093
p4791
aI2394
aa(lp4792
V\u30b5\u30a4\u30d0\u30fc\u30b5\u30f3\u30c0\u30fc\u30b5\u30a4\u30c0\u30fc
p4793
aI2395
aa(lp4794
V\u798f\u5c71\u96c5\u6cbb
p4795
aI2396
aa(lp4796
V\u30b9\u30c8\u30c3\u30d7\u30e2\u30fc\u30b7\u30e7\u30f3
p4797
aI2397
aa(lp4798
V\u30a8\u30a6\u30ec\u30ab\u30bb\u30d6\u30f3
p4799
aI2398
aa(lp4800
V\u5927\u6cb3\u30c9\u30e9\u30de
p4801
aI2399
aa(lp4802
V\u4f1a\u8a71\u4ed8\u304d\u4e09\u56fd\u5fd7\u5927\u6226
p4803
aI2400
aa(lp4804
V\u5fcd\u8005
p4805
aI2401
aa(lp4806
V\u30b5\u30d0\u30b2\u30fc
p4807
aI2402
aa(lp4808
VCagayake!GIRLS
p4809
aI2403
aa(lp4810
V\u539f\u7530\u3072\u3068\u307f
p4811
aI2404
aa(lp4812
Vunlimitedcodes
p4813
aI2405
aa(lp4814
V\u30c0\u30f3\u30ac\u30f3\u30ed\u30f3\u30d1MMD
p4815
aI2406
aa(lp4816
V\u732b\u592a\u90ceP
p4817
aI2407
aa(lp4818
V\u5cb8\u5c3e\u3060\u3044\u3059\u3051
p4819
aI2408
aa(lp4820
V\u5168\u65e5\u672c\u30d7\u30ed\u30ec\u30b9
p4821
aI2409
aa(lp4822
V\u624b\u66f8\u304d
p4823
aI2410
aa(lp4824
V\u9ad8\u6a4b\u307f\u306a\u307f
p4825
aI2411
aa(lp4826
V\u7434\u8449\u831c\u30fb\u8475\u5b9f\u6cc1\u30d7\u30ec\u30a4
p4827
aI2412
aa(lp4828
V\u30d1\u30e9\u30c0\u30a4\u30b9\u30c6\u30ec\u30d3
p4829
aI2413
aa(lp4830
VAxispowers\u30d8\u30bf\u30ea\u30a2
p4831
aI2414
aa(lp4832
V\u6851\u5cf6\u6cd5\u5b50
p4833
aI2415
aa(lp4834
V\u6a9c\u5c71\u4fee\u4e4b
p4835
aI2416
aa(lp4836
V\u6539\u9020\u30dd\u30b1\u30e2\u30f3
p4837
aI2417
aa(lp4838
V\u4f55\u6545\u4f38\u3073\u306a\u3044
p4839
aI2418
aa(lp4840
V\u6226\u7565\u30b2\u30fcpart1\u30ea\u30f3\u30af
p4841
aI2419
aa(lp4842
V\u98db\u3070\u3059\u306a\u5371\u967a
p4843
aI2420
aa(lp4844
V\u3042\u308a\u304c\u3068\u3046
p4845
aI2421
aa(lp4846
V\u30ae\u30e3\u30e9\u30af\u30b7\u30fc\u30a8\u30f3\u30b8\u30a7\u30eb
p4847
aI2422
aa(lp4848
V\u30d0\u30fc\u30ca\u30d3\u30fc\u30fb\u30d6\u30eb\u30c3\u30af\u30b9Jr.
p4849
aI2423
aa(lp4850
V\u3075\u3050\u308a\u5a18
p4851
aI2424
aa(lp4852
V\u30b2\u30fc\u30e0\u7cfb\u5200\u5263\u4e71\u821e
p4853
aI2425
aa(lp4854
V\u30eb\u30fc\u30df\u30a2
p4855
aI2426
aa(lp4856
V\u30ed\u30de\u30f3\u30b7\u30f3\u30b0\u30b5\u30ac
p4857
aI2427
aa(lp4858
VMinecraft\u30de\u30eb\u30c1\u30d7\u30ec\u30a4\u5b9f\u6cc1
p4859
aI2428
aa(lp4860
V\u3054\u3063\u3064\u3048\u3048\u611f\u3058
p4861
aI2429
aa(lp4862
V\u7af9\u5cf6
p4863
aI2430
aa(lp4864
VSAI
p4865
aI2431
aa(lp4866
V\u30aa\u30ab\u30eb\u30c8
p4867
aI2432
aa(lp4868
V\u5df4\u30de\u30df
p4869
aI2433
aa(lp4870
V\u30d5\u30a1\u30c3\u30b7\u30e7\u30f3
p4871
aI2434
aa(lp4872
VV\u7cfb\u4f5c\u696d\u7528BGM
p4873
aI2435
aa(lp4874
V\u304a\u3063\u3055\u3093
p4875
aI2436
aa(lp4876
V\u30c0\u30fc\u30af\u30bd\u30a6\u30eb\u5bfe\u4eba\u52d5\u753b
p4877
aI2437
aa(lp4878
VPC-98
p4879
aI2438
aa(lp4880
V\u554f\u984c\u30b7\u30ea\u30fc\u30ba
p4881
aI2439
aa(lp4882
V\u5c71\u5bfa\u5b8f\u4e00
p4883
aI2440
aa(lp4884
VDP
p4885
aI2441
aa(lp4886
VVOCALOID-CD\u30c7\u30e2
p4887
aI2442
aa(lp4888
V\u6570\u306e\u66b4\u529b
p4889
aI2443
aa(lp4890
V\u753b\u4f2f
p4891
aI2444
aa(lp4892
V\u4e16\u754c\u3067\u3044\u3061\u3070\u3093\u30c0\u30b5\u3044\u30b7\u30ea\u30fc\u30ba
p4893
aI2445
aa(lp4894
V\u30c9\u30e9\u30de\uff23\uff24
p4895
aI2446
aa(lp4896
V\u6ce3\u3051\u308b\u30a2\u30a4\u30de\u30b9
p4897
aI2447
aa(lp4898
V\u6c38\u4e95\u5144\u5f1f
p4899
aI2448
aa(lp4900
V\u30de\u30a4\u30af\u30e9
p4901
aI2449
aa(lp4902
V\u30b7\u30e0\u30d4\u30fc\u30d7\u30eb
p4903
aI2450
aa(lp4904
V\u30af\u30c8\u30a5\u30eb\u30d5\u795e\u8a71\uff34\uff32\uff30\uff27
p4905
aI2451
aa(lp4906
V\u76d7\u64ae
p4907
aI2452
aa(lp4908
V\u30de\u30ae
p4909
aI2453
aa(lp4910
V\u8ab0\u304b\u304c\u3084\u308b\u3068\u601d\u3063\u305f\u30b7\u30ea\u30fc\u30ba
p4911
aI2454
aa(lp4912
V\u30ad\u30f3\u30b0\u30af\u30ea\u30e0\u30be\u30f3
p4913
aI2455
aa(lp4914
VHoneyWorks
p4915
aI2456
aa(lp4916
VPSU
p4917
aI2457
aa(lp4918
V\u81ea\u4f5cPC
p4919
aI2458
aa(lp4920
V\u540d\u585a\u4f73\u7e54
p4921
aI2459
aa(lp4922
V\u5200\u5263\u4e71\u821e\u507d\u5b9f\u6cc1
p4923
aI2460
aa(lp4924
V\u767d\u77f3\u7a14
p4925
aI2461
aa(lp4926
V\u6226\u56fd\u4e59\u5973
p4927
aI2462
aa(lp4928
Vvocaloid
p4929
aI2463
aa(lp4930
V\u30a2\u30a4\u30ef\u30ca
p4931
aI2464
aa(lp4932
VR-18\u53cd\u7701\u4f1a\u4f1a\u5834
p4933
aI2465
aa(lp4934
V\u30b9\u30de\u30d6\u30e9DX
p4935
aI2466
aa(lp4936
V\u6771\u65b9\u6c38\u591c\u6284
p4937
aI2467
aa(lp4938
VGGX\uff52\uff44
p4939
aI2468
aa(lp4940
V\u30dc\u30ab\u30ed\u30af\u30e9\u30b7\u30ab
p4941
aI2469
aa(lp4942
V\u30d5\u30e5\u30fc\u30b8\u30e7\u30f3
p4943
aI2470
aa(lp4944
V\u30d5\u30bf\u30a8\u30ce\u30ad\u30ef\u30df\u3001\u30a2\u30c3\u30fc\uff01
p4945
aI2471
aa(lp4946
V\u521d\u5fc3\u8005\u5411\u3051
p4947
aI2472
aa(lp4948
V\u697d\u5929\u30a4\u30fc\u30b0\u30eb\u30b9
p4949
aI2473
aa(lp4950
V\u30bb\u30fc\u30e9\u30fc\u670d
p4951
aI2474
aa(lp4952
V\u6c38\u591c\u6284
p4953
aI2475
aa(lp4954
V\u65e5\u548c\u5973\u6027\u5411\u3051\u30ea\u30f3\u30af
p4955
aI2476
aa(lp4956
V\u30b9\u30d5\u30a3\u30a2
p4957
aI2477
aa(lp4958
V\u30a8\u30ed\u30b2\u30ab\u30e9\u30aa\u30b1DB
p4959
aI2478
aa(lp4960
V\u6642\u4ee3\u304c\u8ffd\u3044\u3064\u3044\u305f
p4961
aI2479
aa(lp4962
V\u30b9\u30fc\u30d1\u30fc\u30de\u30ea\u30aa\u30d6\u30e9\u30b6\u30fc\u30ba
p4963
aI2480
aa(lp4964
VSA
p4965
aI2481
aa(lp4966
V\u30cd\u30af\u30ed\u30d5\u30a1\u30f3\u30bf\u30b8\u30a2
p4967
aI2482
aa(lp4968
V\u30c9\u30e9\u30af\u30a8\uff16
p4969
aI2483
aa(lp4970
V\u30c9\u30e9\u30de/\u6d77\u5916
p4971
aI2484
aa(lp4972
VL4U
p4973
aI2485
aa(lp4974
VDLC
p4975
aI2486
aa(lp4976
V\u6226\u59eb\u7d76\u5531\u30b7\u30f3\u30d5\u30a9\u30ae\u30a2
p4977
aI2487
aa(lp4978
V\u3086\u304b\u306a
p4979
aI2488
aa(lp4980
V\u6851\u7530\u4f73\u7950
p4981
aI2489
aa(lp4982
V\u5c06\u68cb\u5b9f\u6cc1
p4983
aI2490
aa(lp4984
V\u30eb\u30eb\u30fc\u30b7\u30e5
p4985
aI2491
aa(lp4986
V\u30cb\u30b3\u30cb\u30b3\u5c02\u7528\u30e9\u30b8\u30aa\u30ea\u30f3\u30af
p4987
aI2492
aa(lp4988
V\u4f5c\u8005\u306f\u30a6\u30b1\u308b\u3068\u601d\u3063\u3066\u305f\u30b7\u30ea\u30fc\u30ba
p4989
aI2493
aa(lp4990
V\u307e\u307e\u307e\u5f0f\u3042\u3074\u30df\u30af
p4991
aI2494
aa(lp4992
V\u5185\u7530\u5f69
p4993
aI2495
aa(lp4994
V\u5236\u9650\u30d7\u30ec\u30a4part1\u30ea\u30f3\u30af
p4995
aI2496
aa(lp4996
V\u6681\u7f8e\u307b\u3080\u3089
p4997
aI2497
aa(lp4998
V\u5916\u56fd\u4eba\u53c2\u653f\u6a29
p4999
aI2498
aa(lp5000
V\u6728\u6751\u826f\u5e73
p5001
aI2499
aa(lp5002
V\u653f\u6b74M@D
p5003
aI2500
aa(lp5004
V\uff2d\uff2d\uff24
p5005
aI2501
aa(lp5006
V\u3086\u3063\u304f\u308aMinecraft
p5007
aI2502
aa(lp5008
V\u30ab\u30fc\u30c9\u30b2\u30fc\u30e0
p5009
aI2503
aa(lp5010
VD.Gray-man
p5011
aI2504
aa(lp5012
V\u6b21\u56de\u4e88\u544a
p5013
aI2505
aa(lp5014
Vef
p5015
aI2506
aa(lp5016
V\u5b9f\u6cc1\u52d5\u753b
p5017
aI2507
aa(lp5018
V\u30c8\u30e0\u3068\u30b8\u30a7\u30ea\u30fc
p5019
aI2508
aa(lp5020
V\u30e2\u30b6\u30a4\u30af\u30ed\u30fc\u30eb
p5021
aI2509
aa(lp5022
V\u72ac\u8d70\u691b
p5023
aI2510
aa(lp5024
VBALDRSKY
p5025
aI2511
aa(lp5026
V\u30de\u30ea\u30aa\u30b7\u30fc\u30b1\u30f3\u30b5
p5027
aI2512
aa(lp5028
V\u5b89\u5143\u6d0b\u8cb4
p5029
aI2513
aa(lp5030
V\u6bd4\u8f03
p5031
aI2514
aa(lp5032
VODORU
p5033
aI2515
aa(lp5034
V\u3044\u3068\u3082\u305f\u3084\u3059\u304f\u884c\u308f\u308c\u308b\u3048\u3052\u3064\u306a\u3044\u884c\u70ba
p5035
aI2516
aa(lp5036
VFF3
p5037
aI2517
aa(lp5038
V\u30b7\u30e0\u30b7\u30c6\u30a3
p5039
aI2518
aa(lp5040
VMEIKO\u30aa\u30ea\u30b8\u30ca\u30eb\u66f2
p5041
aI2519
aa(lp5042
V\u30b2\u30b2\u30b2\u306e\u9b3c\u592a\u90ce
p5043
aI2520
aa(lp5044
V\u82b1\u7d44
p5045
aI2521
aa(lp5046
V\u4eca\u65e5\u304b\u3089\u30de\u738b\uff01
p5047
aI2522
aa(lp5048
V\u4ffa\u306e\u5c4d\u3092\u8d8a\u3048\u3066\u3086\u3051
p5049
aI2523
aa(lp5050
V\u3082\u3075\u3082\u3075
p5051
aI2524
aa(lp5052
V\u3044\u3044\u7b11\u9854
p5053
aI2525
aa(lp5054
V\u7591\u4f3cm@s
p5055
aI2526
aa(lp5056
V\u6771\u65b9\u5996\u3005\u5922
p5057
aI2527
aa(lp5058
V\u307e\u307e\u307e\u5f0fGUMI
p5059
aI2528
aa(lp5060
V\u30dc\u30ab\u30ed\u4e8c\u6b21\u6d3e\u751f\u66f2\u30ab\u30e9\u30aa\u30b1DB
p5061
aI2529
aa(lp5062
Vmugen\u30ad\u30e3\u30e9\u4f5c\u6210
p5063
aI2530
aa(lp5064
V\u5730\u7403\u9632\u885b\u8ecd3
p5065
aI2531
aa(lp5066
V\u30d0\u30b9\u30b1
p5067
aI2532
aa(lp5068
V\u9ad8\u6a4b\u5e83\u6a39
p5069
aI2533
aa(lp5070
VTrance
p5071
aI2534
aa(lp5072
V\u521d\u898b\u6bba\u3057
p5073
aI2535
aa(lp5074
VMMD\u30b9\u30c6\u30fc\u30b8\u914d\u5e03\u3042\u308a
p5075
aI2536
aa(lp5076
V\u767a\u8eca\u30e1\u30ed\u30c7\u30a3
p5077
aI2537
aa(lp5078
V\u91ce\u5916\u6599\u7406
p5079
aI2538
aa(lp5080
VAV\u5973\u512a
p5081
aI2539
aa(lp5082
V\u4e0d\u6b7b\u9ce5\u52d5\u753b
p5083
aI2540
aa(lp5084
V\u30d0\u30f3\u30c0\u30a4
p5085
aI2541
aa(lp5086
V\u3044\u3068\u3046\u304b\u306a\u3053
p5087
aI2542
aa(lp5088
VWORKING!!
p5089
aI2543
aa(lp5090
VKO
p5091
aI2544
aa(lp5092
V\u82b1\u4eac\u9662\u5178\u660e
p5093
aI2545
aa(lp5094
VR-15
p5095
aI2546
aa(lp5096
V\u6e0b\u8c37\u51db
p5097
aI2547
aa(lp5098
V\u30b7\u30e5\u30bf\u30a4\u30f3\u30ba\u30fb\u30b2\u30fc\u30c8
p5099
aI2548
aa(lp5100
V\u7fbd\u591a\u91ce\u6e09
p5101
aI2549
aa(lp5102
V\u6a2a\u5c71\u7dd1
p5103
aI2550
aa(lp5104
V\u30c6\u30cb\u30d7\u30ea
p5105
aI2551
aa(lp5106
Vf(x)
p5107
aI2552
aa(lp5108
V\u3055\u307e\u3041\uff5e\u305a
p5109
aI2553
aa(lp5110
V\u30a2\u30eb\u30c8\u30cd\u30ea\u30b3
p5111
aI2554
aa(lp5112
VZUN
p5113
aI2555
aa(lp5114
V\u90fd\u5e02\u4f1d\u8aac
p5115
aI2556
aa(lp5116
V\u30e0\u30c3\u30af
p5117
aI2557
aa(lp5118
V\u306f\u3061\u3085\u306d\u30df\u30af
p5119
aI2558
aa(lp5120
V\u3046\u308b\u661f\u3084\u3064\u3089
p5121
aI2559
aa(lp5122
V\u767d\u77f3\u6dbc\u5b50
p5123
aI2560
aa(lp5124
V\u5200\u5263\u4e71\u821e\u5353\u30b2\u30ea\u30f3\u30af
p5125
aI2561
aa(lp5126
V\u30d6\u30e9\u30c3\u30af\u30e9\u30b0\u30fc\u30f3
p5127
aI2562
aa(lp5128
V\u671d\u9bae
p5129
aI2563
aa(lp5130
V\u4e2d\u306e\u4eba
p5131
aI2564
aa(lp5132
VFLASH
p5133
aI2565
aa(lp5134
VPC\u30b2\u30fc\u30e0\u30d7\u30ec\u30a4part1\u30ea\u30f3\u30af
p5135
aI2566
aa(lp5136
V\u3086\u3063\u304f\u308a\uff34\uff32\uff30\uff27
p5137
aI2567
aa(lp5138
VDMC
p5139
aI2568
aa(lp5140
V\u7af6\u6cf3\u6c34\u7740
p5141
aI2569
aa(lp5142
V\u3072\u3050\u3089\u3057
p5143
aI2570
aa(lp5144
V\u306a\u305c\u30d9\u30b9\u30c8\u3092\u5c3d\u304f\u3057\u305f\u306e\u304b
p5145
aI2571
aa(lp5146
VLily
p5147
aI2572
aa(lp5148
V\u85e4\u539f\u5553\u6cbb
p5149
aI2573
aa(lp5150
V\u6d77\u4e0a\u81ea\u885b\u968a
p5151
aI2574
aa(lp5152
V\u30c7\u30b8\u30e2\u30f3\u30a2\u30c9\u30d9\u30f3\u30c1\u30e3\u30fc
p5153
aI2575
aa(lp5154
V\u30ae\u30eb\u30ac\u30e1\u30c3\u30b7\u30e5
p5155
aI2576
aa(lp5156
VP4U2
p5157
aI2577
aa(lp5158
V\u677e\u672c\u5b5d\u5f18
p5159
aI2578
aa(lp5160
VPOP
p5161
aI2579
aa(lp5162
V\u30c7\u30d3\u30eb\u30b5\u30de\u30ca\u30fc
p5163
aI2580
aa(lp5164
VKENN
p5165
aI2581
aa(lp5166
V\u30d6\u30ea(\uff9f\u2200\uff9f)\u30cf\u30de\u30c1
p5167
aI2582
aa(lp5168
V\u30b0\u30ed
p5169
aI2583
aa(lp5170
V\u677e\u5ca1\u798e\u4e1e
p5171
aI2584
aa(lp5172
V\u30cf\u30ed\u30a6\u30a3\u30f3
p5173
aI2585
aa(lp5174
V\u3077\u3061\u307e\u3059\uff01
p5175
aI2586
aa(lp5176
V\u30dd\u30b1\u30e2\u30f3\u4e0d\u601d\u8b70\u306e\u30c0\u30f3\u30b8\u30e7\u30f3
p5177
aI2587
aa(lp5178
V\u30d6\u30ec\u30a4\u30af\u30c0\u30f3\u30b9
p5179
aI2588
aa(lp5180
V\u6771\u65b9\u98a8\u795e\u9332
p5181
aI2589
aa(lp5182
V\u6d5c\u5d0e\u3042\u3086\u307f
p5183
aI2590
aa(lp5184
V\u30db\u30e2\u306f\u5618\u3064\u304d
p5185
aI2591
aa(lp5186
V\u30b1\u30e2\u30ce
p5187
aI2592
aa(lp5188
V\u30db\u30f3\u30c0
p5189
aI2593
aa(lp5190
V\u51db\u3068\u3057\u3066\u6642\u96e8
p5191
aI2594
aa(lp5192
V\u30c6\u30cb\u30df\u30e52nd
p5193
aI2595
aa(lp5194
V\u30db\u30e2
p5195
aI2596
aa(lp5196
V\u6d17\u8133\u52d5\u753b
p5197
aI2597
aa(lp5198
V\u3057\u3087\u3053\u305f\u3093
p5199
aI2598
aa(lp5200
V\u79cb\u8449\u539f
p5201
aI2599
aa(lp5202
Vbiim\u30b7\u30b9\u30c6\u30e0
p5203
aI2600
aa(lp5204
V\u306e\u3093\u306e\u3093\u3073\u3088\u308a
p5205
aI2601
aa(lp5206
V\u30b5\u30d0\u30a4\u30d0\u30eb\u30b2\u30fc\u30e0
p5207
aI2602
aa(lp5208
V\u4ec1\u5f8c\u771f\u8036\u5b50
p5209
aI2603
aa(lp5210
V\u5c11\u5973\u6642\u4ee3\u306e\u82b8\u80fd\u30ea\u30f3\u30af
p5211
aI2604
aa(lp5212
V\u4f1d\u8aac
p5213
aI2605
aa(lp5214
V\u30bb\u30d4\u30a2
p5215
aI2606
aa(lp5216
VMGSV:TPP
p5217
aI2607
aa(lp5218
V\u30d4\u30c3\u30c1\u5909\u66f4
p5219
aI2608
aa(lp5220
V\u3044\u3055\u3058
p5221
aI2609
aa(lp5222
V\u81ea\u4e3b\u5236\u4f5c\u30a2\u30cb\u30e1
p5223
aI2610
aa(lp5224
V\u30dd\u30b1\u30e2\u30bd\u30d0\u30c8\u30eb
p5225
aI2611
aa(lp5226
VFFXIV
p5227
aI2612
aa(lp5228
V\u702c\u6238\u306e\u82b1\u5ac1
p5229
aI2613
aa(lp5230
V\u771f\u8d64\u306a\u8a93\u3044
p5231
aI2614
aa(lp5232
V\u98a8\u306e\u30bf\u30af\u30c8
p5233
aI2615
aa(lp5234
V\u30df\u30e5\u30fc\u30c8\u63a8\u5968
p5235
aI2616
aa(lp5236
VAP\u30d8\u30bf\u30ea\u30a2\u5357\u4f0a\u592a\u5229\u4e9c\u30ea\u30f3\u30af
p5237
aI2617
aa(lp5238
VWizardry
p5239
aI2618
aa(lp5240
V\u30ac\u30c1\u30e0\u30c1
p5241
aI2619
aa(lp5242
V\u30c9\u30e9\u30e0\u30f3\u30d9\u30fc\u30b9
p5243
aI2620
aa(lp5244
V\u7dcf\u96c6\u7de8
p5245
aI2621
aa(lp5246
VTDN
p5247
aI2622
aa(lp5248
V\u30d5\u30a1\u30f3\u30bf\u30b7\u30fc\u30b9\u30bf\u30fc\u30aa\u30f3\u30e9\u30a4\u30f32
p5249
aI2623
aa(lp5250
V\u51db\u3068\u3057\u3066\u54b2\u304f\u82b1\u306e\u5982\u304f
p5251
aI2624
aa(lp5252
V\u516b\u96f2\u85cd
p5253
aI2625
aa(lp5254
V\u7206\u97f3\u63a8\u5968
p5255
aI2626
aa(lp5256
V\u30c9\u30e9\u30af\u30a810
p5257
aI2627
aa(lp5258
V\u771f\u30fb\u4e09\u570b\u7121\u53ccOnline
p5259
aI2628
aa(lp5260
V\u30d0\u30ab\u3068\u30c6\u30b9\u30c8\u3068\u53ec\u559a\u7363
p5261
aI2629
aa(lp5262
V\u30b9\u30af\u30fc\u30eb\u6c34\u7740
p5263
aI2630
aa(lp5264
V\u6b66\u88c5\u795e\u59eb
p5265
aI2631
aa(lp5266
V\u5fc3\u970a\u30b9\u30dd\u30c3\u30c8
p5267
aI2632
aa(lp5268
V\u304b\u306b\u3071\u3093\u3002
p5269
aI2633
aa(lp5270
VTOX2
p5271
aI2634
aa(lp5272
VTOA
p5273
aI2635
aa(lp5274
Vsplatoon
p5275
aI2636
aa(lp5276
V\u30a8\u30b3\u30fc
p5277
aI2637
aa(lp5278
V\u30a2\u30fc\u30bb\u30ca\u30eb
p5279
aI2638
aa(lp5280
V\u5730\u7403\u9632\u885b\u8ecd2
p5281
aI2639
aa(lp5282
V\u30d5\u30ed\u30f3\u30c8\u30df\u30c3\u30b7\u30e7\u30f3
p5283
aI2640
aa(lp5284
VKONAMI
p5285
aI2641
aa(lp5286
VKAITO_V3
p5287
aI2642
aa(lp5288
V\u30da\u30eb\u30bd\u30ca\uff13
p5289
aI2643
aa(lp5290
V\u5927\u539f\u3055\u3084\u304b
p5291
aI2644
aa(lp5292
VVOCALOID2
p5293
aI2645
aa(lp5294
V\u7fbd\u751f\u5584\u6cbb
p5295
aI2646
aa(lp5296
VGGXXACPR
p5297
aI2647
aa(lp5298
Vmaimai
p5299
aI2648
aa(lp5300
V\u4f5c\u696d\u59a8\u5bb3\u7528\uff22\uff27\uff2d
p5301
aI2649
aa(lp5302
V\u9b42\u5b9f\u88c5\u6e08\u307f
p5303
aI2650
aa(lp5304
VEXILE
p5305
aI2651
aa(lp5306
V\u725b\u6ca2
p5307
aI2652
aa(lp5308
V\u30b9\u30da\u30b7\u30e3\u30eb\u30d5\u30a9\u30fc\u30b9
p5309
aI2653
aa(lp5310
V\u7f8e\u5973
p5311
aI2654
aa(lp5312
V\u845b\u8449\u30e9\u30a4\u30c9\u30a6
p5313
aI2655
aa(lp5314
VJAMProject
p5315
aI2656
aa(lp5316
V\u30b9\u30ab\u30a4\u30a6\u30a9\u30fc\u30c9\u30bd\u30fc\u30c9
p5317
aI2657
aa(lp5318
V\u3010MMD\u2606Lamb.\u611f\u8b1d\u796d\u3011
p5319
aI2658
aa(lp5320
V\u30c8\u30a5\u30fc\u30e0\u30ec\u30a4\u30c0\u30fc
p5321
aI2659
aa(lp5322
V\u7761\u7720\u7528BGM
p5323
aI2660
aa(lp5324
V\u30a2\u30a4\u30de\u30b9
p5325
aI2661
aa(lp5326
V\u30a2\u30a4\u30ec\u30e0
p5327
aI2662
aa(lp5328
V\u30c7\u30e2\u30f3\u30ba\u30bd\u30a6\u30eb\u5bfe\u4eba\u52d5\u753b
p5329
aI2663
aa(lp5330
V\u4f5c\u753b\u5d29\u58ca
p5331
aI2664
aa(lp5332
V\u30af\u30c8\u30a5\u30eb\u30d5
p5333
aI2665
aa(lp5334
V\u6625\u9e97
p5335
aI2666
aa(lp5336
VTYPE-MOON
p5337
aI2667
aa(lp5338
V\u30e9\u30d6\u30e9\u30a4\u30d6!
p5339
aI2668
aa(lp5340
V\u658e\u8cc0\u307f\u3064\u304d
p5341
aI2669
aa(lp5342
V\u30ab\u30fc\u30c8\u30a5\u30fc\u30f3\u30cd\u30c3\u30c8\u30ef\u30fc\u30af
p5343
aI2670
aa(lp5344
V3D
p5345
aI2671
aa(lp5346
VAI\u4f5c\u3063\u3066\u307f\u305f\u30b7\u30ea\u30fc\u30ba
p5347
aI2672
aa(lp5348
VGUNDAMM@STER
p5349
aI2673
aa(lp5350
V\u7b2c1\u8a71\u30ea\u30f3\u30af
p5351
aI2674
aa(lp5352
V\u30c6\u30c8\u30aa\u30ea\u30b8\u30ca\u30eb\u66f2
p5353
aI2675
aa(lp5354
VFFXI
p5355
aI2676
aa(lp5356
V\u6771\u65b9\u30d4\u30a2\u30ce\u6f14\u594f
p5357
aI2677
aa(lp5358
V\u592a\u967d\u66f0\u304f\u71c3\u3048\u3088\u30ab\u30aa\u30b9
p5359
aI2678
aa(lp5360
V\u4eee\u9762\u30e9\u30a4\u30c0\u30fcW
p5361
aI2679
aa(lp5362
V\u8a13\u7df4\u3055\u308c\u305f\u30b3\u30e1\u30f3\u30c8
p5363
aI2680
aa(lp5364
VGvG
p5365
aI2681
aa(lp5366
V\u30c7\u30e5\u30aa\u30c7\u30b7\u30e0
p5367
aI2682
aa(lp5368
V\u30aa\u30fc\u30d7\u30cb\u30f3\u30b0
p5369
aI2683
aa(lp5370
V\u30ed\u30de\u30b5\u30ac\uff12
p5371
aI2684
aa(lp5372
V\u4e0a\u6761\u5f53\u9ebb
p5373
aI2685
aa(lp5374
V\u3075\u308f\u3075\u308f\u6642\u9593
p5375
aI2686
aa(lp5376
VLoL
p5377
aI2687
aa(lp5378
V\u9650\u308a\u306a\u304f\u30a2\u30a6\u30c8\u306b\u8fd1\u3044\u30a2\u30a6\u30c8
p5379
aI2688
aa(lp5380
V\u5e7d\u904a\u767d\u66f8
p5381
aI2689
aa(lp5382
V\u30b5\u30a6\u30f3\u30c9\u30ce\u30d9\u30eb
p5383
aI2690
aa(lp5384
V\u524d\u885b\u7684\u30d1\u30f3\u30c4\u30ec\u30b9\u30ea\u30f3\u30b0
p5385
aI2691
aa(lp5386
V\u3055\u3068\u3046\u3055\u3055\u3089
p5387
aI2692
aa(lp5388
V\u9b54\u88c5\u6a5f\u795e
p5389
aI2693
aa(lp5390
V\u3086\u304b\u308a\u30aa\u30ea\u30b8\u30ca\u30eb\u66f2
p5391
aI2694
aa(lp5392
V\u4f55\u6545\u6b4c\u3063\u305f\u30b7\u30ea\u30fc\u30ba
p5393
aI2695
aa(lp5394
V\u30a4\u30f3\u30d5\u30a3\u30cb\u30c3\u30c8\u30fb\u30b9\u30c8\u30e9\u30c8\u30b9
p5395
aI2696
aa(lp5396
V\u30ea\u30ba\u30e0\u5929\u56fd
p5397
aI2697
aa(lp5398
V\u30a2\u30a4\u30c9\u30eb\u30de\u30b9\u30bf\u30fc\uff08\u30a2\u30cb\u30e1\uff09
p5399
aI2698
aa(lp5400
V\u30b2\u30a4
p5401
aI2699
aa(lp5402
V\u6708\u59eb
p5403
aI2700
aa(lp5404
V\u4eba\u529bVOCALOID
p5405
aI2701
aa(lp5406
V\u4eac\u90fd
p5407
aI2702
aa(lp5408
V\u3072\u3050\u3089\u3057\u306e\u306a\u304f\u9803\u306b\u796d
p5409
aI2703
aa(lp5410
V\u30b3\u30b9\u30d7\u30ec\u3067\u8e0a\u3063\u3066\u307f\u305f
p5411
aI2704
aa(lp5412
V\u8150\u5973\u5b50
p5413
aI2705
aa(lp5414
V\u5909\u614b\u3068\u3044\u3046\u540d\u306e\u7d33\u58eb
p5415
aI2706
aa(lp5416
V\u5c0f\u5b66\u751f
p5417
aI2707
aa(lp5418
V\u30e9\u30bf\u30c8\u30b9\u30af\u306e\u9a0e\u58eb
p5419
aI2708
aa(lp5420
V\u30ad\u30eb\u30df\u30fc\u30d9\u30a4\u30d9\u30fc
p5421
aI2709
aa(lp5422
V\u30b8\u30e3\u30c3\u30af\u30fb\u30aa\u30fb\u862d\u305f\u3093
p5423
aI2710
aa(lp5424
V\u3044\u304d\u3082\u306e\u304c\u304b\u308a
p5425
aI2711
aa(lp5426
V\u30cf\u30af\u30e1\u30f3
p5427
aI2712
aa(lp5428
VGARO
p5429
aI2713
aa(lp5430
V\u751f\u6d3b\u4fdd\u8b77
p5431
aI2714
aa(lp5432
V\u4f5c\u696d\u59a8\u5bb3BGM
p5433
aI2715
aa(lp5434
VTAS\u3055\u3093\u306e\u4f11\u65e5
p5435
aI2716
aa(lp5436
V\u2642\u2640\uff08love\uff09
p5437
aI2717
aa(lp5438
V\u30a2\u30f3\u30c1\u30e3\u30fc\u30c6\u30c3\u30c9
p5439
aI2718
aa(lp5440
VMHP3rd
p5441
aI2719
aa(lp5442
V\u5ddd\u4e95\u61b2\u6b21
p5443
aI2720
aa(lp5444
VYOSHIKI
p5445
aI2721
aa(lp5446
V\u5927\u5996\u7cbe
p5447
aI2722
aa(lp5448
VMount&amp;Blade
p5449
aI2723
aa(lp5450
V\u3082\u3082\u3044\u308d\u30af\u30ed\u30fc\u30d0\u30fc
p5451
aI2724
aa(lp5452
V\u304d\u3093\u3044\u308d\u30e2\u30b6\u30a4\u30af
p5453
aI2725
aa(lp5454
V\u30ac\u30ad\u306e\u4f7f\u3044
p5455
aI2726
aa(lp5456
V\u30cb\u30b3\u9244\u306e\u30e9\u30a4\u30d0\u30eb\u4f1a\u793e
p5457
aI2727
aa(lp5458
V\u4eee\u9762\u30e9\u30a4\u30c0\u30fc\u93a7\u6b66
p5459
aI2728
aa(lp5460
V\u8ce2\u8005\u80b2\u6210\u52d5\u753b
p5461
aI2729
aa(lp5462
V\u91d1\u7530\u4e00\u5c11\u5e74\u306e\u4e8b\u4ef6\u7c3f
p5463
aI2730
aa(lp5464
Vdie\u30b8\u30a7\u30b9\u30c8
p5465
aI2731
aa(lp5466
V\u793e\u9577
p5467
aI2732
aa(lp5468
V\u8d85\u9ad8\u753b\u8cea
p5469
aI2733
aa(lp5470
V\u30d2\u30c6\u30c3\u30de\u30f3
p5471
aI2734
aa(lp5472
VDTXMania
p5473
aI2735
aa(lp5474
V\u6d88\u3059\u3068\u5897\u3048\u307e\u3059
p5475
aI2736
aa(lp5476
V\u6587\u5316\u653e\u9001
p5477
aI2737
aa(lp5478
V\u30b9\u30fc\u30d1\u30fc\u30de\u30ea\u30aa\u30ef\u30fc\u30eb\u30c9
p5479
aI2738
aa(lp5480
V\u30af\u30e9\u30ca\u30c9
p5481
aI2739
aa(lp5482
V\u5ec3\u589f
p5483
aI2740
aa(lp5484
VDC
p5485
aI2741
aa(lp5486
V\u30ac\u30f3\u30c0\u30e0W
p5487
aI2742
aa(lp5488
V\u30b2\u30fc\u30e0\u30a2\u30fc\u30ab\u30a4\u30d6\u30b9\u914d\u4fe1\u30bf\u30a4\u30c8\u30eb
p5489
aI2743
aa(lp5490
V\u7247\u624b\u5263
p5491
aI2744
aa(lp5492
V\u5149\u7530\u5eb7\u5178
p5493
aI2745
aa(lp5494
V\u30a6\u30eb\u30c8\u30e9\u30bb\u30d6\u30f3
p5495
aI2746
aa(lp5496
V\u30ab\u30b2\u30ed\u30a6\u30c7\u30a4\u30ba
p5497
aI2747
aa(lp5498
V\u751f\u8db3
p5499
aI2748
aa(lp5500
V\u30d5\u30a3\u30ae\u30e5\u30a2MAD
p5501
aI2749
aa(lp5502
V\u30de\u30a4\u30e9\u30a4\u30d5
p5503
aI2750
aa(lp5504
V\u30dd\u30b1\u30e2\u30f3\u624b\u63cf\u304dMAD\u30ea\u30f3\u30af
p5505
aI2751
aa(lp5506
VPS4\u671f\u5f85\u4f5c\u30ea\u30f3\u30af
p5507
aI2752
aa(lp5508
V\u7532\u5b50\u5712
p5509
aI2753
aa(lp5510
V\u30de\u30ea\u30a2\u69d8\u304c\u307f\u3066\u308b
p5511
aI2754
aa(lp5512
V\u30cf\u30a6\u30b9
p5513
aI2755
aa(lp5514
V\u69c7\u539f\u656c\u4e4b
p5515
aI2756
aa(lp5516
V\u304f\u3059\u3050\u308a
p5517
aI2757
aa(lp5518
VCSO
p5519
aI2758
aa(lp5520
V\u9ad8\u57ce\u308c\u306b
p5521
aI2759
aa(lp5522
V\u305d\u3057\u3066\u8ab0\u3082\u3044\u306a\u304f\u306a\u3063\u305f
p5523
aI2760
aa(lp5524
V\u653b\u7565
p5525
aI2761
aa(lp5526
VTOX
p5527
aI2762
aa(lp5528
V\u30dc\u30ab\u30ed
p5529
aI2763
aa(lp5530
VDMC3
p5531
aI2764
aa(lp5532
V\u96ea\u7d44
p5533
aI2765
aa(lp5534
V\u30c9\u30e9\u30b4\u30f3\u30ba\u30c9\u30b0\u30de
p5535
aI2766
aa(lp5536
VALIPROJECT
p5537
aI2767
aa(lp5538
V\u6226\u56fdBASARA\u30d7\u30ec\u30a4\u52d5\u753b
p5539
aI2768
aa(lp5540
V\u6dbc\u5bae\u30cf\u30eb\u30d2MAD
p5541
aI2769
aa(lp5542
V\u9678\u4e0a\u81ea\u885b\u968a
p5543
aI2770
aa(lp5544
V\u5f3e\u5e55
p5545
aI2771
aa(lp5546
ViM@S\u30aa\u30fc\u30eb\u30b9\u30bf\u30fc
p5547
aI2772
aa(lp5548
Vpillows
p5549
aI2773
aa(lp5550
V\u97f3\u30b2\u30d7\u30ec\u30a4
p5551
aI2774
aa(lp5552
V\u5618\u5b57\u5e55
p5553
aI2775
aa(lp5554
VJOYSOUND\u30ea\u30af\u30a8\u30b9\u30c8\u6295\u7968\u4e2d
p5555
aI2776
aa(lp5556
V\u72fc\u3068\u9999\u8f9b\u6599
p5557
aI2777
aa(lp5558
V\u30b9\u30d12X
p5559
aI2778
aa(lp5560
V\u30bb\u30af\u30b7\u30fc
p5561
aI2779
aa(lp5562
VD.C.
p5563
aI2780
aa(lp5564
V\u30bd\u30a6\u30eb\u30ad\u30e3\u30ea\u30d0\u30fc
p5565
aI2781
aa(lp5566
V\u30d1\u30af\u30ea
p5567
aI2782
aa(lp5568
V\u30c9\u30e9\u30b4\u30f3\u30ba
p5569
aI2783
aa(lp5570
V\u897f\u7530\u660c\u53f8
p5571
aI2784
aa(lp5572
V\u9032\u6483\u306e\u5de8\u4ebaMAD
p5573
aI2785
aa(lp5574
V\u7121\u6599\u30b5\u30f3\u30d7\u30eb
p5575
aI2786
aa(lp5576
V\u9177\u9053
p5577
aI2787
aa(lp5578
V\u5b99\u7d44
p5579
aI2788
aa(lp5580
V\u30bf\u30de\u30d5\u30eb
p5581
aI2789
aa(lp5582
V\u4e09\u6fa4\u7d17\u5343\u9999
p5583
aI2790
aa(lp5584
V\u8d64\ufa11\u5343\u590f
p5585
aI2791
aa(lp5586
V\u306f\u3044\u3066\u306a\u3044
p5587
aI2792
aa(lp5588
V\u30b7\u30f3\u30af\u30ed\u7387400\uff05
p5589
aI2793
aa(lp5590
V\u30cd\u30b3
p5591
aI2794
aa(lp5592
V\u4e95\u4e0a\u559c\u4e45\u5b50
p5593
aI2795
aa(lp5594
V\u9ad8\u5c71\u307f\u306a\u307f
p5595
aI2796
aa(lp5596
V\u30b9\u30fc\u30d1\u30fc\u30b8\u30e5\u30cb\u30a2
p5597
aI2797
aa(lp5598
V\u3068\u304d\u30e1\u30e2GS
p5599
aI2798
aa(lp5600
V\u30cb\u30b3\u30cb\u30b3\u30e1\u30c9\u30ec\u30fc\u30b7\u30ea\u30fc\u30ba
p5601
aI2799
aa(lp5602
VVOCALOID\u3092\u63cf\u3044\u3066\u307f\u305f
p5603
aI2800
aa(lp5604
VPlayStationNetwork\u914d\u4fe1\u30bf\u30a4\u30c8\u30eb
p5605
aI2801
aa(lp5606
V\u30bd\u30ed
p5607
aI2802
aa(lp5608
Vkors_k
p5609
aI2803
aa(lp5610
VBGM\u306e\u5927\u5207\u3055\u304c\u308f\u304b\u308b\u52d5\u753b
p5611
aI2804
aa(lp5612
V\u4e3b\u6a29\u56de\u5fa9\u3092\u76ee\u6307\u3059\u4f1a
p5613
aI2805
aa(lp5614
V\u304c\u304f\u307d\u30aa\u30ea\u30b8\u30ca\u30eb\u66f2
p5615
aI2806
aa(lp5616
V\u30aa\u30fc\u30c9\u30ea\u30fc
p5617
aI2807
aa(lp5618
VNicoSound\u5bfe\u5fdc
p5619
aI2808
aa(lp5620
V\u9ed2\u57f7\u4e8b
p5621
aI2809
aa(lp5622
V\u30e1\u30ab\u30af\u30b7\u30c6\u30a3\u30a2\u30af\u30bf\u30fc\u30ba
p5623
aI2810
aa(lp5624
V\u30a4\u30bf\u30ea\u30a2
p5625
aI2811
aa(lp5626
VTOG
p5627
aI2812
aa(lp5628
V\u84ec\u83b1\u5c71\u8f1d\u591c
p5629
aI2813
aa(lp5630
V\u8c4a\u53e3\u3081\u3050\u307f
p5631
aI2814
aa(lp5632
V\u5439\u304d\u66ff\u3048
p5633
aI2815
aa(lp5634
V\u56db\u5929\u5b9d\u5bfa
p5635
aI2816
aa(lp5636
V\u3067\u3044\u3060\u3076\u308b
p5637
aI2817
aa(lp5638
VJanne_Da_Arc
p5639
aI2818
aa(lp5640
V\u3072\u308d\u3086\u304d
p5641
aI2819
aa(lp5642
V\u4e2d\u4e95\u548c\u54c9
p5643
aI2820
aa(lp5644
VGB
p5645
aI2821
aa(lp5646
VMSSP_MAD
p5647
aI2822
aa(lp5648
V\u30ac\u30eb\u30d1\u30f3
p5649
aI2823
aa(lp5650
VMGS2
p5651
aI2824
aa(lp5652
VDies_irae
p5653
aI2825
aa(lp5654
V\u30f4\u30a1\u30a4\u30b9\u30b7\u30e5\u30f4\u30a1\u30eb\u30c4
p5655
aI2826
aa(lp5656
V\u30ed\u30fc\u30c9\u30ec\u30fc\u30b9
p5657
aI2827
aa(lp5658
V\u3088\u3063\u304b\u3063\u305f\u3089\u306e\u4eba
p5659
aI2828
aa(lp5660
V\u30e1\u30bf\u30ca\u30a4\u30c8
p5661
aI2829
aa(lp5662
V\u661f\u7d44
p5663
aI2830
aa(lp5664
VMBAACC
p5665
aI2831
aa(lp5666
V\u30e1\u30a4\u30ad\u30f3\u30b0
p5667
aI2832
aa(lp5668
V\u30d1\u30ed\u30c7\u30a3
p5669
aI2833
aa(lp5670
V\u4f55\u304b\u306b\u76ee\u899a\u3081\u308b\u52d5\u753b
p5671
aI2834
aa(lp5672
V\u58f2\u56fd\u5974
p5673
aI2835
aa(lp5674
VMHF-G
p5675
aI2836
aa(lp5676
V\u3046\uff50\u4e3b\u306f\u75c5\u6c17\u30b7\u30ea\u30fc\u30ba
p5677
aI2837
aa(lp5678
V\u77f3\u539f\u590f\u7e54
p5679
aI2838
aa(lp5680
V\u68d2\u8aad\u307f
p5681
aI2839
aa(lp5682
V\u30a2\u30a4\u30ab\u30c4\uff01
p5683
aI2840
aa(lp5684
V\u6843\u97f3\u30e2\u30e2
p5685
aI2841
aa(lp5686
V\u9580\u3092\u958b\u304f\u8005\u30a2\u30ea\u30b9
p5687
aI2842
aa(lp5688
VADS
p5689
aI2843
aa(lp5690
V\u30ad\u30eb\u30e9\u30ad\u30eb
p5691
aI2844
aa(lp5692
V\u9999\u6e2f
p5693
aI2845
aa(lp5694
V3DCG
p5695
aI2846
aa(lp5696
V\u771f\u9762\u76ee\u30de\u30c3\u30b5\u30fc\u30b8
p5697
aI2847
aa(lp5698
V\u98a8\u8a55\u88ab\u5bb3
p5699
aI2848
aa(lp5700
V\u3082\u306e\u307e\u306d
p5701
aI2849
aa(lp5702
V\u30aa\u30ea\u30f3\u30d4\u30c3\u30af
p5703
aI2850
aa(lp5704
V\u767e\u7530\u590f\u83dc\u5b50
p5705
aI2851
aa(lp5706
V\u795e\u56de\u907f
p5707
aI2852
aa(lp5708
V\u30c0\u30fc\u30af\u30bd\u30a6\u30eb\u5354\u529b\u52d5\u753b
p5709
aI2853
aa(lp5710
V\u30cf\u30fc\u30c8\u30ad\u30e3\u30c3\u30c1\u30d7\u30ea\u30ad\u30e5\u30a2\uff01
p5711
aI2854
aa(lp5712
VAP\u30d8\u30bf\u30ea\u30a2\u3067\u66ff\u3048\u6b4c
p5713
aI2855
aa(lp5714
V\u30b3\u30d3\u30fc
p5715
aI2856
aa(lp5716
V\u30ec\u30aa\u30bf\u30fc\u30c9
p5717
aI2857
aa(lp5718
VBBCSEX
p5719
aI2858
aa(lp5720
V\u624b\u66f8\u304d\u96fb\u738b
p5721
aI2859
aa(lp5722
V\u30de\u30ea\u30aa\u30e1\u30fc\u30ab\u30fc
p5723
aI2860
aa(lp5724
Vorz
p5725
aI2861
aa(lp5726
V\u5207\u306a\u9854P\u5f0f\u30a8\u30ec\u30f3\u30fb\u30a4\u30a7\u30fc\u30ac\u30fc
p5727
aI2862
aa(lp5728
Vsage\u63a8\u5968
p5729
aI2863
aa(lp5730
V\u5317\u7c73\u7248
p5731
aI2864
aa(lp5732
V\u30ea\u30a2\u7363
p5733
aI2865
aa(lp5734
V\u8c37\u5c71\u6d69\u5b50
p5735
aI2866
aa(lp5736
V\u97f3\uff2d\uff21\uff24
p5737
aI2867
aa(lp5738
V\u306d\u306d\u3057
p5739
aI2868
aa(lp5740
V\u548e\u72d7\u306e\u8840
p5741
aI2869
aa(lp5742
V\u304a\u30b8\u30e3\u9b54\u5973\u3069\u308c\u307f
p5743
aI2870
aa(lp5744
V\u30b9\u30da\u30e9\u30f3\u30ab\u30fc
p5745
aI2871
aa(lp5746
V\u30c9\u30e9\u3048\u3082\u3093\u672c\u7de8
p5747
aI2872
aa(lp5748
VELLEGARDEN
p5749
aI2873
aa(lp5750
V\u30d0\u30eb\u30bb\u30ed\u30ca
p5751
aI2874
aa(lp5752
V\u30c9\u30e9\u30af\u30a8\uff18
p5753
aI2875
aa(lp5754
V\u30b9\u30fc\u30d1\u30fc\u30c0\u30f3\u30ac\u30f3\u30ed\u30f3\u30d12
p5755
aI2876
aa(lp5756
V\u9b54\u7406\u6c99
p5757
aI2877
aa(lp5758
V\u30ac\u30f3\u30b9\u30ea\u30f3\u30ac\u30fc\u30b9\u30c8\u30e9\u30c8\u30b92
p5759
aI2878
aa(lp5760
V\u30f1\u30f4\u30a1\u30f3\u30b2\u30ea\u30f2\u30f3
p5761
aI2879
aa(lp5762
V\u30b9\u30e9\u30e0\u30c0\u30f3\u30af
p5763
aI2880
aa(lp5764
V\u3082\u3063\u3068\u5275\u4fa1\u3055\u308c\u308b\u3079\u304d
p5765
aI2881
aa(lp5766
V\u30a6\u30c3\u30c1\u30e3\u30f3\u30ca\u30f3\u30c1\u30e3\u30f3
p5767
aI2882
aa(lp5768
V\u795e\u30a2\u30cb\u30e1
p5769
aI2883
aa(lp5770
V\u30ad\u30e7\u30f3
p5771
aI2884
aa(lp5772
V\u30a4\u30f3\u30c6\u30eb
p5773
aI2885
aa(lp5774
V\u9e7f\u91ce\u512a\u4ee5
p5775
aI2886
aa(lp5776
V\u9577\u66fe\u6211\u90e8\u5143\u89aa(\u6226\u56fdBASARA)
p5777
aI2887
aa(lp5778
V\u4e2d\u91ce\uff34\uff32\uff26
p5779
aI2888
aa(lp5780
V\u751f\u5f92\u4f1a\u5f79\u54e1\u5171
p5781
aI2889
aa(lp5782
V\u4f1d\u5409
p5783
aI2890
aa(lp5784
V\u516c\u5f0fMAD
p5785
aI2891
aa(lp5786
V\u30a4\u30e1\u30fc\u30b8\u5353\u30ea\u30f3\u30af
p5787
aI2892
aa(lp5788
V\u30d3\u30fc\u30c8\u30eb\u30ba
p5789
aI2893
aa(lp5790
Vmatsujun
p5791
aI2894
aa(lp5792
V\u6709\u5b89\u674f\u679c
p5793
aI2895
aa(lp5794
VED\u96c6
p5795
aI2896
aa(lp5796
V\u30b6\u30f3\u30ae\u30a8\u30d5
p5797
aI2897
aa(lp5798
V\u79cb\u59c9\u59b9
p5799
aI2898
aa(lp5800
VBIGBANG
p5801
aI2899
aa(lp5802
V\u30b4\u30ea\u62bc\u3057
p5803
aI2900
aa(lp5804
V\u30c0\u30d6\u30eb\u30d0\u30c8\u30eb
p5805
aI2901
aa(lp5806
V\u5b57\u5e55\u30d7\u30ec\u30a4
p5807
aI2902
aa(lp5808
V\u30ef\u30fc\u30eb\u30ba\u30a8\u30f3\u30c9\u30fb\u30c0\u30f3\u30b9\u30db\u30fc\u30eb
p5809
aI2903
aa(lp5810
V\u624b\u63cf\u304d\u30b8\u30e7\u30b8\u30e7
p5811
aI2904
aa(lp5812
V\u3044\u3048\u308d\uff5e\u305c\u3076\u3089
p5813
aI2905
aa(lp5814
V\u6728\u6839\u5c1a\u767b
p5815
aI2906
aa(lp5816
V\u30b8\u30e3\u30cb\u30fc\u30ba
p5817
aI2907
aa(lp5818
VSAN\u5024\u76f4\u846c
p5819
aI2908
aa(lp5820
V\u6b66\u8853
p5821
aI2909
aa(lp5822
V\u521d\u97f3\u30df\u30af\u540d\u66f2\u30ea\u30f3\u30af
p5823
aI2910
aa(lp5824
V\u3048\uff1f\u3042\u3041\u3001\u305d\u3046\u3002
p5825
aI2911
aa(lp5826
V\u8b66\u5bdf
p5827
aI2912
aa(lp5828
V\u6681\u306e\u5973\u795e
p5829
aI2913
aa(lp5830
V\u98a8\u795e\u9332
p5831
aI2914
aa(lp5832
V\u6751\u5ddd\u68a8\u8863
p5833
aI2915
aa(lp5834
V\u4e03\u8272\u306e\u30cb\u30b3\u30cb\u30b3\u52d5\u753b
p5835
aI2916
aa(lp5836
V\u5143\u6c17\u304c\u51fa\u308b\u66f2
p5837
aI2917
aa(lp5838
V\u5c0f\u7530\u548c\u6b63
p5839
aI2918
aa(lp5840
VF-ZERO
p5841
aI2919
aa(lp5842
V\u524a\u9664\u6e08\u307f
p5843
aI2920
aa(lp5844
V\u30d0\u30c8\u30eb\u30b9\u30d4\u30ea\u30c3\u30c4
p5845
aI2921
aa(lp5846
V\u3069\u3046\u305b\u30a4\u30b1\u30e1\u30f3
p5847
aI2922
aa(lp5848
V\u5929\u624d
p5849
aI2923
aa(lp5850
V\u307f\u3093\u306a\u306e\u30df\u30af\u3046\u305f
p5851
aI2924
aa(lp5852
V\u7389\u4e95\u8a69\u7e54
p5853
aI2925
aa(lp5854
V\u6b4c\u3046P\u30b7\u30ea\u30fc\u30ba
p5855
aI2926
aa(lp5856
V\u4e0b\u524b\u4e0a\u306e\u4eba
p5857
aI2927
aa(lp5858
V\u6771\u65b9\u30ea\u30d7\u30ec\u30a4
p5859
aI2928
aa(lp5860
VTBS\u30e9\u30b8\u30aa
p5861
aI2929
aa(lp5862
V\u30cb\u30b3\u30cb\u30b3\u52d5\u753b
p5863
aI2930
aa(lp5864
VKork
p5865
aI2931
aa(lp5866
V\u65b0\u7530\u6075\u6d77
p5867
aI2932
aa(lp5868
VMMD\u8b1b\u5ea7
p5869
aI2933
aa(lp5870
VMIX
p5871
aI2934
aa(lp5872
V\u30a4\u30f3\u30d7\u30ec\u30c3\u30b5
p5873
aI2935
aa(lp5874
V\u30ef\u30ec\u30e1
p5875
aI2936
aa(lp5876
V\u30d0\u30f3\u30c9
p5877
aI2937
aa(lp5878
V\u30ea\u30d4\u30fc\u30c8\u63a8\u5968
p5879
aI2938
aa(lp5880
V\u30e8\u30c3\u30b7\u30fc\u30a2\u30a4\u30e9\u30f3\u30c9
p5881
aI2939
aa(lp5882
V\u624b\u63cf\u304d\u5200\u5263\u4e71\u821e
p5883
aI2940
aa(lp5884
V\u3075\uff5e\u3069
p5885
aI2941
aa(lp5886
VGBO
p5887
aI2942
aa(lp5888
V\u30b5\u30a4\u30b3\u30d6\u30ec\u30a4\u30af
p5889
aI2943
aa(lp5890
V\u904a\u622f\u738bARC-V
p5891
aI2944
aa(lp5892
VEUROBEAT
p5893
aI2945
aa(lp5894
VUFC
p5895
aI2946
aa(lp5896
VPRIDE
p5897
aI2947
aa(lp5898
V\u5929\u91ce\u6708\u5b50
p5899
aI2948
aa(lp5900
V\u9ad8\u6749\u664b\u52a9
p5901
aI2949
aa(lp5902
V\u4e2d\u4e8c\u75c5
p5903
aI2950
aa(lp5904
V\u304a\u304a\u632f\u308aBL\u30ea\u30f3\u30af
p5905
aI2951
aa(lp5906
V\u30a2\u30d9\u30ce\u30df\u30af\u30b9
p5907
aI2952
aa(lp5908
V\u970a\u5922
p5909
aI2953
aa(lp5910
V\u524d\u7530\u6566\u5b50
p5911
aI2954
aa(lp5912
V\u7530\u4e95\u4e2d\u5f8b
p5913
aI2955
aa(lp5914
V\u958b\u767a\u30b3\u30fc\u30c9miki
p5915
aI2956
aa(lp5916
V\u30a2\u30c9\u30d9\u30f3\u30c1\u30e3\u30fc
p5917
aI2957
aa(lp5918
V\u4fe1\u9577\u306e\u91ce\u671b\u30fb\u5275\u9020
p5919
aI2958
aa(lp5920
V7_days_to_die
p5921
aI2959
aa(lp5922
V\u30dc\u30ab\u30ed\u30c7\u30e5\u30a8\u30c3\u30c8\u30ab\u30e9\u30aa\u30b1DB
p5923
aI2960
aa(lp5924
V\u5165\u91ce\u81ea\u7531
p5925
aI2961
aa(lp5926
VProjectDIVAArcade\u8a55\u4fa1PERFECT
p5927
aI2962
aa(lp5928
VNER(\u751f\u653e\u9001\u4e3b)
p5929
aI2963
aa(lp5930
V\u5b87\u90fd\u5bae\u9686
p5931
aI2964
aa(lp5932
ViM@S\u6d0b\u697d\u30b3\u30e9\u30dcPV
p5933
aI2965
aa(lp5934
V\u5b8c\u6210\u5ea6\u9ad8\u3051\u30fc\u306a\u30aa\u30a4
p5935
aI2966
aa(lp5936
V\u30c0\u30a4\u30a8\u30c3\u30c8
p5937
aI2967
aa(lp5938
V\u30de\u30f3\u30c1\u30a7\u30b9\u30bf\u30fc\u30fb\u30e6\u30ca\u30a4\u30c6\u30c3\u30c9
p5939
aI2968
aa(lp5940
V\u7206\u8d70\u5144\u5f1f
p5941
aI2969
aa(lp5942
V\uff34\uff32\uff30\uff27
p5943
aI2970
aa(lp5944
V\u624b\u30d6\u30e9
p5945
aI2971
aa(lp5946
V\u53e4\u4ee3\u7950\u4e09
p5947
aI2972
aa(lp5948
V\u30df\u30af\u30c8\u30ed\u30cb\u30ab
p5949
aI2973
aa(lp5950
VWBC
p5951
aI2974
aa(lp5952
V9mm
p5953
aI2975
aa(lp5954
V\u8133\u6f3f\u70b8\u88c2\u30ac\u30fc\u30eb
p5955
aI2976
aa(lp5956
V\u3042\u3055\u304f\u3089
p5957
aI2977
aa(lp5958
V\u5b57\u5e55
p5959
aI2978
aa(lp5960
V\u30d5\u30ea\u30fc\u30b6
p5961
aI2979
aa(lp5962
V\u5ca9\u7530\u5149\u592e
p5963
aI2980
aa(lp5964
V\u590f
p5965
aI2981
aa(lp5966
V\u30b9\u30af\u30a6\u30a7\u30a2
p5967
aI2982
aa(lp5968
V\u4ffa\u306e\u5ac1
p5969
aI2983
aa(lp5970
V\u30af\u30ec\u30fc\u30f3\u30b2\u30fc\u30e0
p5971
aI2984
aa(lp5972
V\uff3c(^o^)\uff0f
p5973
aI2985
aa(lp5974
V\u30d0\u30a4\u30aa\u30cf\u30b6\u30fc\u30c9\uff16
p5975
aI2986
aa(lp5976
V\u30e9\u30c3\u30d7
p5977
aI2987
aa(lp5978
V\u79c1\u305f\u3061\u7d50\u5a5a\u3057\u307e\u3057\u305f
p5979
aI2988
aa(lp5980
VSweet_Devil
p5981
aI2989
aa(lp5982
V\u304a\u524d\u306e\u98db\u3073\u65b9\u306f\u304a\u304b\u3057\u3044
p5983
aI2990
aa(lp5984
V\u6771\u65b9\u795e\u970a\u5edf
p5985
aI2991
aa(lp5986
VONE_OK_ROCK
p5987
aI2992
aa(lp5988
V\u30c6\u30a4\u30eb\u30ba\u30aa\u30d6\u30d5\u30a1\u30f3\u30bf\u30b8\u30a2
p5989
aI2993
aa(lp5990
V\u6c11\u9593\u9632\u885b
p5991
aI2994
aa(lp5992
V\u30ac\u30f3\u30c0\u30e0\u30d3\u30eb\u30c9\u30d5\u30a1\u30a4\u30bf\u30fc\u30ba
p5993
aI2995
aa(lp5994
V\u9583\u4e71\u30ab\u30b0\u30e9
p5995
aI2996
aa(lp5996
V\u30cb\u30ef\u30cb\u30e5\u30fc\u30b9
p5997
aI2997
aa(lp5998
V\u30ed\u30fc\u30c6\u30f3\u30b7\u30e7\u30f3\u5b9f\u6cc1
p5999
aI2998
aa(lp6000
V\u3059\u3093\u3070\u3089\u3057\uff5e\u306e\u4eba
p6001
aI2999
aa(lp6002
V\u611b\u3059\u3079\u304d\u304a\u99ac\u9e7f\u9054
p6003
aI3000
aa(lp6004
V\u30d0\u30c8\u30eb\u30aa\u30da\u30ec\u30fc\u30b7\u30e7\u30f3
p6005
aI3001
aa(lp6006
V\u6d0b\u753b
p6007
aI3002
aa(lp6008
V\u5317\u6d77\u9053\u65e5\u672c\u30cf\u30e0\u30d5\u30a1\u30a4\u30bf\u30fc\u30ba
p6009
aI3003
aa(lp6010
V\u9759\u5ca1
p6011
aI3004
aa(lp6012
Vrelations
p6013
aI3005
aa(lp6014
V\u30bb\u30ea\u30a8A
p6015
aI3006
aa(lp6016
VDir_en_grey
p6017
aI3007
aa(lp6018
V\u30a2\u30fc\u30b1\u30fc\u30c9\u30b2\u30fc\u30e0
p6019
aI3008
aa(lp6020
V\u30b8\u30e5\u30d4\u30bf\u30fc(\u30a2\u30a4\u30c9\u30eb\u30de\u30b9\u30bf\u30fc)
p6021
aI3009
aa(lp6022
V\u7d05\u9b54\u90f7
p6023
aI3010
aa(lp6024
V\uff21\uff36\uff08\u30a2\u30cb\u30de\u30eb\u30d3\u30c7\u30aa\uff09
p6025
aI3011
aa(lp6026
V\u5929\u56fd\u3068\u5730\u7344
p6027
aI3012
aa(lp6028
Vcivilization
p6029
aI3013
aa(lp6030
V\u9577\u8c37\u5ddd\u660e\u5b50
p6031
aI3014
aa(lp6032
V\u30ed\u30ea\u30a8\u30ed\u597d\u304d\u5927\u6b53\u8fce
p6033
aI3015
aa(lp6034
V\u7cbe\u5b50\u6ce5\u68d2
p6035
aI3016
aa(lp6036
V\u30d7\u30ea\u30d1\u30e9
p6037
aI3017
aa(lp6038
VANN
p6039
aI3018
aa(lp6040
V\u539f\u66f2\u4e0d\u4f7f\u7528
p6041
aI3019
aa(lp6042
V(V)\u30fb\u2200\u30fb(V)
p6043
aI3020
aa(lp6044
V\u5927\u5cf6\u512a\u5b50
p6045
aI3021
aa(lp6046
V\u795eOP
p6047
aI3022
aa(lp6048
V\u30df\u30b9\u30c1\u30eb
p6049
aI3023
aa(lp6050
V\u3061\u3073\u30df\u30af
p6051
aI3024
aa(lp6052
V\u30de\u30b9\u30b3\u30c3\u30c8
p6053
aI3025
aa(lp6054
VChiptune
p6055
aI3026
aa(lp6056
V\u30cb\u30b3\u30cb\u30b3\u97f3\u697d\u79d1
p6057
aI3027
aa(lp6058
V\u3082\u3046\u8a31\u3057\u3066\u3084\u308c\u3088
p6059
aI3028
aa(lp6060
V\u4eba\u72fc
p6061
aI3029
aa(lp6062
V\u5730\u7403\u9632\u885b\u8ecd
p6063
aI3030
aa(lp6064
V\u3055\u3055\u304d\u3044\u3055\u304a
p6065
aI3031
aa(lp6066
V\u30e9\u30a4\u30d6\u30a2\u30e9\u30a4\u30d6
p6067
aI3032
aa(lp6068
V\uff22\uff27\uff2d
p6069
aI3033
aa(lp6070
V\u30c9\u30e9\u30af\u30a88
p6071
aI3034
aa(lp6072
V\u85e4\u7530\u54b2
p6073
aI3035
aa(lp6074
V\u5b89\u7530\u9855
p6075
aI3036
aa(lp6076
V\u672c\u65e5\u306e10\u5272
p6077
aI3037
aa(lp6078
V\u97f3\u30b2\u30fcMAD@\u30a2\u30a4\u30de\u30b9
p6079
aI3038
aa(lp6080
V\u3086\u308b\u3086\u308a\u266a\u266a
p6081
aI3039
aa(lp6082
VWRC
p6083
aI3040
aa(lp6084
V\u30ab\u30c4\u30c8\u30b7\uff08\u751f\u653e\u9001\u4e3b\uff09
p6085
aI3041
aa(lp6086
V\u30d1\u30b9\u30bf
p6087
aI3042
aa(lp6088
V\u3069\u3093\u305f\u3053\u3059
p6089
aI3043
aa(lp6090
VVitaminX
p6091
aI3044
aa(lp6092
V\u30c8\u30ed\u30fb\u30b9\u30c6\u30fc\u30b7\u30e7\u30f3
p6093
aI3045
aa(lp6094
Vstepmania
p6095
aI3046
aa(lp6096
V\u30a2\u30a4\u30de\u30b9\u904a\u622f\u738b
p6097
aI3047
aa(lp6098
V\u30ec\u30c3\u30c9\u30b9\u30c8\u30fc\u30f3
p6099
aI3048
aa(lp6100
VAC4
p6101
aI3049
aa(lp6102
V\u690e\u540d\u3078\u304d\u308b
p6103
aI3050
aa(lp6104
V\u4e09\u91cd
p6105
aI3051
aa(lp6106
V\u5e7b\u60f3\u5165\u308a\uff11\u8a71\u30ea\u30f3\u30af
p6107
aI3052
aa(lp6108
V\u5869\u6ca2\u517c\u4eba
p6109
aI3053
aa(lp6110
V\u30e9\u30b9\u30c8\u30aa\u30d6\u30a2\u30b9
p6111
aI3054
aa(lp6112
V\u30b5\u30d6\u30a6\u30a7\u30a4\u30de\u30b9\u30bf\u30fc
p6113
aI3055
aa(lp6114
VBF1942
p6115
aI3056
aa(lp6116
V\u96fb\u6c17\u30b0\u30eb\u30fc\u30f4
p6117
aI3057
aa(lp6118
V\u6771\u65b9\u30d4\u30a2\u30ce\u697d\u8b5c
p6119
aI3058
aa(lp6120
V\u5c71\u672c\u6b63\u4e4b
p6121
aI3059
aa(lp6122
V\u4e16\u754c\u306e\u65b0\u7740\u52d5\u753b
p6123
aI3060
aa(lp6124
VVOCALOID\u98df\u5802\u5165\u308a
p6125
aI3061
aa(lp6126
V\u6d25\u6ce2
p6127
aI3062
aa(lp6128
VRevo
p6129
aI3063
aa(lp6130
V\u6fa4\u91ce\u5f18\u4e4b
p6131
aI3064
aa(lp6132
VCAPCOM
p6133
aI3065
aa(lp6134
V\u3086\u3063\u304f\u308a\u30b7\u30e7\u30fc\u30c8\u602a\u8ac7\u30ea\u30f3\u30af
p6135
aI3066
aa(lp6136
V\u7acb\u6728\u6587\u5f66
p6137
aI3067
aa(lp6138
V\u65e5\u9ad8\u91cc\u83dc
p6139
aI3068
aa(lp6140
VTF2
p6141
aI3069
aa(lp6142
V\u30d5\u30ec\u30fc\u30e0\u88dc\u9593
p6143
aI3070
aa(lp6144
V\u30a4\u30ca\u30dc\u30ab
p6145
aI3071
aa(lp6146
V\u3053\u3061\u4e80
p6147
aI3072
aa(lp6148
V\u30b3\u30cd\u30af\u30c8
p6149
aI3073
aa(lp6150
VVOCALOID\u590f\u66f2
p6151
aI3074
aa(lp6152
VNHK\u306e\u672c\u6c17
p6153
aI3075
aa(lp6154
V007
p6155
aI3076
aa(lp6156
V\u6771\u4eac\u30c7\u30a3\u30ba\u30cb\u30fc\u30b7\u30fc
p6157
aI3077
aa(lp6158
V\u970a\u70cf\u8def\u7a7a
p6159
aI3078
aa(lp6160
V\uff83\uff9e\uff7d\uff84\uff9b\uff70\uff72
p6161
aI3079
aa(lp6162
V\u4e0b\u7740
p6163
aI3080
aa(lp6164
V\u30f4\u30a1\u30f3\u30ac\u30fc\u30c9
p6165
aI3081
aa(lp6166
V\u30b9\u30bf\u30fc\u30d5\u30a9\u30c3\u30af\u30b9
p6167
aI3082
aa(lp6168
V\u6df1\u591c\u306e\u99ac\u9e7f\u529b
p6169
aI3083
aa(lp6170
V\u30b1\u30c4\u30c9\u30e9\u30e0
p6171
aI3084
aa(lp6172
V\u30cb\u30b3\u30cb\u30b3\u30cb\u30e5\u30fc\u30b9
p6173
aI3085
aa(lp6174
V\u8ca7\u4e73
p6175
aI3086
aa(lp6176
V\u71ed\u53f0\u5207\u5149\u5fe0\uff08\u5200\u5263\u4e71\u821e\uff09
p6177
aI3087
aa(lp6178
V\u30b8\u30e3\u30f3\u30eb\u6df7\u5408MMD
p6179
aI3088
aa(lp6180
V\u8c6a\u9b3c
p6181
aI3089
aa(lp6182
V\u9ec4\u702c\u6dbc\u592a
p6183
aI3090
aa(lp6184
V\u9ed2\u5b50\u30c6\u30c4\u30e4
p6185
aI3091
aa(lp6186
VEDF4
p6187
aI3092
aa(lp6188
VToHeart2
p6189
aI3093
aa(lp6190
V\u30c8\u30e9\u30f3\u30b9\u30d5\u30a9\u30fc\u30de\u30fcMAD
p6191
aI3094
aa(lp6192
V\u30d1\u30f3\u30e2\u30ed
p6193
aI3095
aa(lp6194
V\u697d\u3057\u305d\u3046\u3067\u4f55\u3088\u308a\u3067\u3059
p6195
aI3096
aa(lp6196
V\u30b8\u30e3\u30f3\u30d7\u7cfb\u6226\u95d8\u30b7\u30fc\u30f3
p6197
aI3097
aa(lp6198
V\u5168\u88f8
p6199
aI3098
aa(lp6200
V\u6771\u65b9\u91cd\u91d1\u5c5e
p6201
aI3099
aa(lp6202
V\u30a8\u30fc\u30b9\u30b3\u30f3\u30d0\u30c3\u30c86
p6203
aI3100
aa(lp6204
V\u52c7\u8005\u30b7\u30ea\u30fc\u30ba
p6205
aI3101
aa(lp6206
V\u30b3\u30b8\u30de\u6c5a\u67d3\u60a3\u8005\u30b7\u30ea\u30fc\u30ba
p6207
aI3102
aa(lp6208
V\u3086\u3063\u304f\u308aTRPG\u7b2c\u4e00\u8a71\u30ea\u30f3\u30af
p6209
aI3103
aa(lp6210
V\u6642\u4ee3\u5287
p6211
aI3104
aa(lp6212
V\u30dd\u30cb\u30fc\u30c6\u30fc\u30eb
p6213
aI3105
aa(lp6214
VKAZUYA_CHANNEL
p6215
aI3106
aa(lp6216
V\u5927\u6a4b\u5f69\u9999
p6217
aI3107
aa(lp6218
V\u7551\u4e9c\u8cb4
p6219
aI3108
aa(lp6220
V\u662d\u548c\u5e2b\u5320
p6221
aI3109
aa(lp6222
V\u8650\u5f85\u304a\u3058\u3055\u3093
p6223
aI3110
aa(lp6224
V\u30a2\u30a4\u30c9\u30eb\u7d39\u4ecb\u30b7\u30ea\u30fc\u30ba
p6225
aI3111
aa(lp6226
V\u30d0\u30c3\u30cf
p6227
aI3112
aa(lp6228
V\u30b9\u30d1\u30a4\u30c0\u30fc\u30de\u30f3
p6229
aI3113
aa(lp6230
V\u30d1\u30ef\u30d7\u30ed\u30af\u30f3\u30dd\u30b1\u30c3\u30c8
p6231
aI3114
aa(lp6232
V\u6d29\u77e2\u8acf\u8a2a\u5b50
p6233
aI3115
aa(lp6234
V\u30cd\u30a6\u30ed
p6235
aI3116
aa(lp6236
VGONG
p6237
aI3117
aa(lp6238
V\u30d1\u30c1\u30b9\u30ed\u5b9f\u6a5f\u914d\u4fe1part1\u30ea\u30f3\u30af
p6239
aI3118
aa(lp6240
V\u7247\u6850\u4ec1
p6241
aI3119
aa(lp6242
VSIREN2
p6243
aI3120
aa(lp6244
V\u76f8\u6ca2\u821e
p6245
aI3121
aa(lp6246
V\u30ae\u30e3\u30eb\u30b2\u30fc
p6247
aI3122
aa(lp6248
V\u30cd\u30bf\u30d0\u30ec\u7981\u6b62
p6249
aI3123
aa(lp6250
V\u6295\u7a3f\u6642\u9593
p6251
aI3124
aa(lp6252
V\u9ad8\u702c\u4e00\u77e2
p6253
aI3125
aa(lp6254
V\u30b9\u30de\u30a4\u30ec\u30fc\u30b8
p6255
aI3126
aa(lp6256
V\u6226\u56fd\u9802\u4e0a
p6257
aI3127
aa(lp6258
V\u30c9\u30e9\u30af\u30a84
p6259
aI3128
aa(lp6260
V\u306a\u305c\u4f5c\u3063\u305f
p6261
aI3129
aa(lp6262
V\u30cb\u30b3\u30cb\u30b3\u58eb\u5b98\u5b66\u6821
p6263
aI3130
aa(lp6264
V\u30ec\u30ac\u30b7\u30fc
p6265
aI3131
aa(lp6266
V\u30e2\u30f3\u30b9\u30bf\u30fc\u30cf\u30f3\u30bf\u30fc3
p6267
aI3132
aa(lp6268
V\u30ad\u30e3\u30e9\u5d29\u58ca
p6269
aI3133
aa(lp6270
V\u7dd1\u9593\u771f\u592a\u90ce
p6271
aI3134
aa(lp6272
V\u6a5f\u52d5\u6b4c\u59eb\u30f4\u30a9\u30fc\u30ab\u30ea\u30aa\u30f3
p6273
aI3135
aa(lp6274
V\u307e\u3075\u307e\u3075
p6275
aI3136
aa(lp6276
VMAD\u30a2\u30a4\u30de\u30b9\u30d7\u30ed\u30c7\u30e5\u30fc\u30b5\u30fc
p6277
aI3137
aa(lp6278
V\u604b\u8272\u30de\u30b9\u30bf\u30fc\u30b9\u30d1\u30fc\u30af
p6279
aI3138
aa(lp6280
VGT-R
p6281
aI3139
aa(lp6282
V\u9a5a\u7570\u306e\u518d\u73fe\u7387
p6283
aI3140
aa(lp6284
V\u9234\u6728\u611b\u7406
p6285
aI3141
aa(lp6286
VVOCALOID\u30e1\u30c9\u30ec\u30fc
p6287
aI3142
aa(lp6288
VINFINITE
p6289
aI3143
aa(lp6290
VOINK
p6291
aI3144
aa(lp6292
V\u72c2\u6c17\u306e\u512a\u66c7\u83ef\u9662\u30b7\u30ea\u30fc\u30ba
p6293
aI3145
aa(lp6294
VV3GUMI
p6295
aI3146
aa(lp6296
V\u306f\u3058\u3081\u306e\u4e00\u6b69
p6297
aI3147
aa(lp6298
V\u30b9\u30fc\u30d1\u30fc\u30de\u30ea\u30aa\u30ae\u30e3\u30e9\u30af\u30b7\u30fc
p6299
aI3148
aa(lp6300
V\u4f50\u3005\u6728\u5f69\u590f
p6301
aI3149
aa(lp6302
VTERA
p6303
aI3150
aa(lp6304
V\u30de\u30a4\u30ca\u30b9\u30a4\u30aa\u30f3\u30ea\u30fc\u30c0\u30fc
p6305
aI3151
aa(lp6306
V\u304a\u3070\u3055\u3093\u30db\u30a4\u30db\u30a4
p6307
aI3152
aa(lp6308
VGackt
p6309
aI3153
aa(lp6310
V\u9023\u30b6
p6311
aI3154
aa(lp6312
V\u30ea\u30df\u30c3\u30af\u30b9
p6313
aI3155
aa(lp6314
V\u30b9\u30ab\u30a4\u30cf\u30a4
p6315
aI3156
aa(lp6316
V\u30aa\u30ea\u30c3\u30af\u30b9\u30fb\u30d0\u30d5\u30a1\u30ed\u30fc\u30ba
p6317
aI3157
aa(lp6318
V\u7206\u7b11\u554f\u984c
p6319
aI3158
aa(lp6320
V\u92fc\u5175
p6321
aI3159
aa(lp6322
V\u72ac\u591c\u53c9
p6323
aI3160
aa(lp6324
V\u308f\u3051\u304c\u308f\u304b\u3089\u306a\u3044\u3088
p6325
aI3161
aa(lp6326
V\u30a8\u30a4\u30ea\u30a2\u30f3
p6327
aI3162
aa(lp6328
V\u9b54\u738b
p6329
aI3163
aa(lp6330
V\u30cb\u30fc\u30c8\u30b9\u30ba\u30ad
p6331
aI3164
aa(lp6332
V\u84bc\u304d\u92fc\u306e\u30a2\u30eb\u30da\u30b8\u30aa
p6333
aI3165
aa(lp6334
V\u3089\u3093\u307e1/2
p6335
aI3166
aa(lp6336
V\u685c\u862d\u9ad8\u6821\u30db\u30b9\u30c8\u90e8
p6337
aI3167
aa(lp6338
V\u3058\u3087\u3057\u3089\u304f
p6339
aI3168
aa(lp6340
VEvans(\u66f2\u540d)
p6341
aI3169
aa(lp6342
V\u624b\u63cf\u304d\u30a4\u30ca\u30ba\u30de
p6343
aI3170
aa(lp6344
V\u5bb6\u5ead\u7248EXVS
p6345
aI3171
aa(lp6346
V\u30a8\u30cb\u30c3\u30af\u30b9
p6347
aI3172
aa(lp6348
V\u30c1\u30e3\u30f3\u30d4\u30aa\u30f3\u30ba\u30ea\u30fc\u30b0
p6349
aI3173
aa(lp6350
VMOTHER3
p6351
aI3174
aa(lp6352
Vhide
p6353
aI3175
aa(lp6354
V\u7dd2\u65b9\u6075\u7f8e
p6355
aI3176
aa(lp6356
VKanon
p6357
aI3177
aa(lp6358
V\u30a8\u30fc\u30b8\u30a7\u30f3\u30c8\u591c\u3092\u5f80\u304f
p6359
aI3178
aa(lp6360
V\u30cb\u30c3\u30dd\u30f3\u653e\u9001
p6361
aI3179
aa(lp6362
V\u706b\u75c5
p6363
aI3180
aa(lp6364
VBeing\u7cfb\u30a2\u30fc\u30c6\u30a3\u30b9\u30c8
p6365
aI3181
aa(lp6366
V\u30b7\u30e0\u30b7\u30c6\u30a34
p6367
aI3182
aa(lp6368
ViM@S2\u30ce\u30fc\u30de\u30ebPV
p6369
aI3183
aa(lp6370
V\u671f\u5f85\u306e\u75c5\u4eba
p6371
aI3184
aa(lp6372
V\u30ed\u30de\u30b5\u30ac2
p6373
aI3185
aa(lp6374
V\u795e\u306e\u307f\u305e\u77e5\u308b\u30bb\u30ab\u30a4
p6375
aI3186
aa(lp6376
V\u677e\u672c\u68a8\u9999
p6377
aI3187
aa(lp6378
V\u30bf\u30a4\u30c8\u30eb\u8a50\u6b3a
p6379
aI3188
aa(lp6380
V\u3042\u3089\u304b\u308f\u3044\u3044
p6381
aI3189
aa(lp6382
Vmaimai\u52d5\u753b
p6383
aI3190
aa(lp6384
V\u5fc5\u6bba\u30b7\u30ea\u30fc\u30ba
p6385
aI3191
aa(lp6386
V\u30c7\u30d3\u30eb\u30e1\u30a4\u30af\u30e9\u30a44
p6387
aI3192
aa(lp6388
V\u95d8\u5287
p6389
aI3193
aa(lp6390
V\u901f\u6c34\u5968
p6391
aI3194
aa(lp6392
V\u6570\u5b66
p6393
aI3195
aa(lp6394
V\u30a2\u30a4\u30de\u30b9\u4f01\u753b\u544a\u77e5
p6395
aI3196
aa(lp6396
V\u30aa\u30ea\u30b3\u30f3
p6397
aI3197
aa(lp6398
V\u4e2d\u91ce\u6893
p6399
aI3198
aa(lp6400
V\u30d1\u30f3
p6401
aI3199
aa(lp6402
V18\u7981
p6403
aI3200
aa(lp6404
V\u91d1\u30d0\u30a8
p6405
aI3201
aa(lp6406
V\u306d\u3053\u306d\u3053\u30bd\u30d5\u30c8
p6407
aI3202
aa(lp6408
V\u30c0\u30e9\u30a4\u30a2\u30b9
p6409
aI3203
aa(lp6410
V\u30db\u30fc\u30e0\u30e9\u30f3
p6411
aI3204
aa(lp6412
VHANASU
p6413
aI3205
aa(lp6414
V\u5143\u6c17\u304c\u51fa\u308b\u30df\u30af\u3046\u305f
p6415
aI3206
aa(lp6416
V\u30b3\u30d6\u30af\u30ed
p6417
aI3207
aa(lp6418
V\u6b4c\u3044\u624b\u63cf\u3044\u3066\u307f\u305f
p6419
aI3208
aa(lp6420
V\u6e21\u8fba\u5b99\u660e
p6421
aI3209
aa(lp6422
V\u904a\u2606\u622f\u2606\u738b
p6423
aI3210
aa(lp6424
VTMN
p6425
aI3211
aa(lp6426
V\u3088\u304f\u3082\u3053\u3093\u306a\u30ad\u30c1\u30ac\u30a4\u52d5\u753b\u3092\uff01
p6427
aI3212
aa(lp6428
V\u30b8\u30e7\u30bb\u30d5\u30fb\u30b8\u30e7\u30fc\u30b9\u30bf\u30fc
p6429
aI3213
aa(lp6430
VEXVSFB\u5916\u90e8\u51fa\u529b
p6431
aI3214
aa(lp6432
V\u558b\u3089\u305b\u3066\u307f\u305f
p6433
aI3215
aa(lp6434
V\u30b8\u30e7\u30b8\u30e7\u306e\u5947\u5999\u306a\u5192\u967a(\u30a2\u30cb\u30e1)
p6435
aI3216
aa(lp6436
V\u5317\u9678\u30db\u30a4\u30db\u30a4
p6437
aI3217
aa(lp6438
V\u5b87\u5b99\u6226\u8266\u30e4\u30de\u30c82199
p6439
aI3218
aa(lp6440
V\u6c5f\u53e3\u62d3\u4e5f
p6441
aI3219
aa(lp6442
V\u305f\u3060\u306e\u30b9\u30c6\u30ec\u30aa
p6443
aI3220
aa(lp6444
V\u6771\u65b9\u7dcb\u60f3\u5929
p6445
aI3221
aa(lp6446
V\u5fcd\u305fMAD
p6447
aI3222
aa(lp6448
V\u306a\u3093\u3068\u3044\u3046\u3053\u3068\u3067\u3057\u3087\u3046
p6449
aI3223
aa(lp6450
V\u30a2\u30a4\u30de\u30b9\u30cd\u30bf
p6451
aI3224
aa(lp6452
V\u30a2\u30cb\u30b5\u30de
p6453
aI3225
aa(lp6454
V\u30a2\u30cb\u30e1ED
p6455
aI3226
aa(lp6456
V\u307e\u3044\u306b\u3061\u3044\u3063\u3057\u3087
p6457
aI3227
aa(lp6458
V\u9234\u4ed9\u30fb\u512a\u66c7\u83ef\u9662\u30fb\u30a4\u30ca\u30d0
p6459
aI3228
aa(lp6460
V\u30b5\u30c3\u30af\u30b9
p6461
aI3229
aa(lp6462
V\u6d32\u5d0e\u7dbe
p6463
aI3230
aa(lp6464
V\u30b5\u30a6\u30f3\u30c9\u30c8\u30e9\u30c3\u30af
p6465
aI3231
aa(lp6466
VDIVA\u30a8\u30c7\u30a3\u30c3\u30c8DL\u5bfe\u5fdc
p6467
aI3232
aa(lp6468
V\u9006\u8972\u306e\u30b7\u30e3\u30a2
p6469
aI3233
aa(lp6470
V\u5b9f\u6cc1\u30d7\u30ec\u30a4\u30e4\u30fc\u3092\u63cf\u3044\u3066\u307f\u305f
p6471
aI3234
aa(lp6472
VAION
p6473
aI3235
aa(lp6474
V\u30d9\u30b9\u30c8\u30e2\u30fc\u30bf\u30ea\u30f3\u30b0
p6475
aI3236
aa(lp6476
V\u7b2c\u4e8c\u6b21\u4e16\u754c\u5927\u6226
p6477
aI3237
aa(lp6478
V\u30b9\u30de\u30d6\u30e9WiiU\u30bf\u30a4\u30de\u30f3\u30ea\u30f3\u30af
p6479
aI3238
aa(lp6480
V\u5b6b\u609f\u7a7a
p6481
aI3239
aa(lp6482
V\u6c34\u69fd
p6483
aI3240
aa(lp6484
V\u3066\u3064\u3092
p6485
aI3241
aa(lp6486
V\u5c0f\u5d8b\u967d\u83dc
p6487
aI3242
aa(lp6488
V\u30af\u30c8\u30a5\u30eb\u30d5\u795e\u8a71TRPG\u7b2c\u4e00\u8a71\u30ea\u30f3\u30af
p6489
aI3243
aa(lp6490
V\u30bc\u30ce\u30b5\u30fc\u30ac
p6491
aI3244
aa(lp6492
V\u30b9\u30a4\u30fc\u30c8\u30d7\u30ea\u30ad\u30e5\u30a2\u266a
p6493
aI3245
aa(lp6494
V\u3057\u307e\u3046\u307e
p6495
aI3246
aa(lp6496
V\u3068\u3093\u306d\u308b\u305a
p6497
aI3247
aa(lp6498
V\u661f\u718a\u52c7\u5100
p6499
aI3248
aa(lp6500
V\u7652\u3057\u52d5\u753b
p6501
aI3249
aa(lp6502
Voffvocal
p6503
aI3250
aa(lp6504
V\u81ea\u79f0\u521d\u6295\u7a3f\u5144\u8cb4
p6505
aI3251
aa(lp6506
V\u540d\u9244
p6507
aI3252
aa(lp6508
V\u96fb\u8eca\u3067GO!
p6509
aI3253
aa(lp6510
V\u4eee\u9762\u30e9\u30a4\u30c0\u30fc\u5263
p6511
aI3254
aa(lp6512
V\u3075\u307f\u5207
p6513
aI3255
aa(lp6514
V\u5c0f\u6797\u8ce2\u592a\u90ce
p6515
aI3256
aa(lp6516
V\u624d\u80fd\u306e\u7121\u99c4\u4f7f\u3044
p6517
aI3257
aa(lp6518
V\u65b0\u6f5f
p6519
aI3258
aa(lp6520
V\u30b9\u30fc\u30d1\u30fc\u30ed\u30dc\u30c3\u30c8\u5927\u6226Z
p6521
aI3259
aa(lp6522
V\u30b2\u30fc\u30e0BGM
p6523
aI3260
aa(lp6524
V\u82b1\u7530\u7d00\u51f1
p6525
aI3261
aa(lp6526
VMMD\u30a2\u30af\u30bb\u30b5\u30ea\u914d\u5e03\u3042\u308a
p6527
aI3262
aa(lp6528
VFF\u624b\u63cf\u304d
p6529
aI3263
aa(lp6530
V\u8d70\u3063\u3066\u307f\u305f
p6531
aI3264
aa(lp6532
V\u30b9\u30af\u30a6\u30a7\u30a2\u30fb\u30a8\u30cb\u30c3\u30af\u30b9
p6533
aI3265
aa(lp6534
V\u7b4b\u8089\u5c11\u5973\u5e2f
p6535
aI3266
aa(lp6536
V\u5869
p6537
aI3267
aa(lp6538
Vnippendo
p6539
aI3268
aa(lp6540
VNostalogic
p6541
aI3269
aa(lp6542
V\u6b66\u88c5\u932c\u91d1
p6543
aI3270
aa(lp6544
VT-SQUARE
p6545
aI3271
aa(lp6546
V\u771f\u7530\u5e78\u6751\uff08\u6226\u56fdBASARA\uff09
p6547
aI3272
aa(lp6548
V\u3088\u3046\u304b\u3044\u4f53\u64cd\u7b2c\u4e00
p6549
aI3273
aa(lp6550
V\u5c0f\u91ce\u53cb\u6a39
p6551
aI3274
aa(lp6552
V\u30ed\u30c3\u30af\u30de\u30f3\u30bc\u30ed
p6553
aI3275
aa(lp6554
V\u7ffb\u8a33\u5e0c\u671b
p6555
aI3276
aa(lp6556
V\u30b4\u30c3\u30c9\u30a4\u30fc\u30bf\u30fc\u30d0\u30fc\u30b9\u30c8
p6557
aI3277
aa(lp6558
V\u6771\u65b9_\u30b7\u30ea\u30fc\u30baPart1\u30ea\u30f3\u30af
p6559
aI3278
aa(lp6560
VVOCAJAZZ
p6561
aI3279
aa(lp6562
Vaoe3
p6563
aI3280
aa(lp6564
V\u30b0\u30e9\u30d6\u30eb
p6565
aI3281
aa(lp6566
V\u962a\u53e3\u5927\u52a9
p6567
aI3282
aa(lp6568
VG\u30b8\u30a7\u30cd\u30a6\u30a9\u30fc\u30ba
p6569
aI3283
aa(lp6570
Vlov3
p6571
aI3284
aa(lp6572
V\u5bfe\u6226\u52d5\u753b\u4ee5\u5916
p6573
aI3285
aa(lp6574
V\u6771\u4eac\u30e4\u30af\u30eb\u30c8\u30b9\u30ef\u30ed\u30fc\u30ba
p6575
aI3286
aa(lp6576
V\u30b9\u30af\u30a8\u30cb
p6577
aI3287
aa(lp6578
V\u97d3\u6d41
p6579
aI3288
aa(lp6580
V\u6a59
p6581
aI3289
aa(lp6582
V\u565b\u307f\u56de
p6583
aI3290
aa(lp6584
V\u3046\u3055\u304e
p6585
aI3291
aa(lp6586
VKH
p6587
aI3292
aa(lp6588
V\u5b9f\u6cc1\u30d1\u30ef\u30d5\u30eb\u30d7\u30ed\u91ce\u7403
p6589
aI3293
aa(lp6590
V\u304a\u8c46
p6591
aI3294
aa(lp6592
V\u30af\u30c3\u30ad\u30fc\u2606\u2606
p6593
aI3295
aa(lp6594
V\u30e6\u30fc\u30ed\u30d3\u30fc\u30c8
p6595
aI3296
aa(lp6596
V\u5358\u66f2\u4f5c\u696d\u7528\uff22\uff27\uff2d
p6597
aI3297
aa(lp6598
V\u7121\u65ad\u8ee2\u8f09
p6599
aI3298
aa(lp6600
V\u4eba\u59bb
p6601
aI3299
aa(lp6602
V\u3068\u3042\u308b\u79d1\u5b66\u306e\u8d85\u96fb\u78c1\u7832S
p6603
aI3300
aa(lp6604
V\u30d6\u30f3\u30c7\u30b9\u30ea\u30fc\u30ac
p6605
aI3301
aa(lp6606
V\u304b\u3093\u306a\u304e
p6607
aI3302
aa(lp6608
V\u4f1d\u8aac\u306e\u8d85\u30b5\u30e0\u30cd
p6609
aI3303
aa(lp6610
V\u30ef\u30f3\u30c0\u3068\u5de8\u50cf
p6611
aI3304
aa(lp6612
V\u30af\u30ea\u30b9\u30de\u30b9\u30bd\u30f3\u30b0
p6613
aI3305
aa(lp6614
V\u3086\u305a\u30bd\u30d5\u30c8
p6615
aI3306
aa(lp6616
V\u4f50\u5009\u7d17\u7e54
p6617
aI3307
aa(lp6618
V\u4eee\u9762\u30e9\u30a4\u30c0\u30fc\u30ab\u30d6\u30c8
p6619
aI3308
aa(lp6620
VPSO
p6621
aI3309
aa(lp6622
V\u30eb\u30fc\u30c4
p6623
aI3310
aa(lp6624
V\u30b7\u30c6\u30a3\u30fc\u30cf\u30f3\u30bf\u30fc
p6625
aI3311
aa(lp6626
V\u30b6\u30fb\u30ef\u30fc\u30eb\u30c9
p6627
aI3312
aa(lp6628
V\u590f\u76ee\u53cb\u4eba\u5e33
p6629
aI3313
aa(lp6630
V\u3068\u304d\u30e1\u30e2
p6631
aI3314
aa(lp6632
V\u5883\u754c\u7dda\u4e0a\u306e\u30db\u30e9\u30a4\u30be\u30f3
p6633
aI3315
aa(lp6634
VANUBIS
p6635
aI3316
aa(lp6636
V\u30ac\u30bc\u30c3\u30c8
p6637
aI3317
aa(lp6638
V\u3088\u3063\u3055\u3093(\u751f\u653e\u9001\u4e3b)
p6639
aI3318
aa(lp6640
V\u672c\u7530\u572d\u4f51
p6641
aI3319
aa(lp6642
VPCE
p6643
aI3320
aa(lp6644
V\u30c7\u30a3\u30ba\u30cb\u30fc\u77ed\u7de8\u30a2\u30cb\u30e1\u30fc\u30b7\u30e7\u30f3
p6645
aI3321
aa(lp6646
V\u52aa\u529b\u306e\u65b9\u5411\u97f3\u75f4
p6647
aI3322
aa(lp6648
VL4D
p6649
aI3323
aa(lp6650
V\u8056\u98e2\u9b54\u2161
p6651
aI3324
aa(lp6652
V\u4e0d\u6b63\u306f\u306a\u304b\u3063\u305f
p6653
aI3325
aa(lp6654
V\u30e9\u30b0\u30ca
p6655
aI3326
aa(lp6656
V\u91d1\u670b\u5730\u7344
p6657
aI3327
aa(lp6658
V\u5996\u3005\u5922
p6659
aI3328
aa(lp6660
V\u7f8e\u30d6\u30e9\u30fc\u30c8
p6661
aI3329
aa(lp6662
VLiSA
p6663
aI3330
aa(lp6664
V\u6771\u65b94\u30b3\u30de
p6665
aI3331
aa(lp6666
VMMD\u30a2\u30af\u30b7\u30e7\u30f3
p6667
aI3332
aa(lp6668
V\u67cf\u6728\u7531\u7d00
p6669
aI3333
aa(lp6670
V\u507d\u30c8\u30ed\u30ad\u30e3\u30d7\u30c1\u30e3
p6671
aI3334
aa(lp6672
V\u53a8\u4e8c\u75c5
p6673
aI3335
aa(lp6674
V\u83ca\u6c60\u4fca\u8f14
p6675
aI3336
aa(lp6676
V\u30a6\u30a4\u30cb\u30f3\u30b0\u30a4\u30ec\u30d6\u30f3
p6677
aI3337
aa(lp6678
Vgalaxias!
p6679
aI3338
aa(lp6680
V\u518d\u73feMAD
p6681
aI3339
aa(lp6682
Vwac
p6683
aI3340
aa(lp6684
V\u6771\u65b9\u4f5c\u696d\u66f2
p6685
aI3341
aa(lp6686
V\u541b\u304c\u671b\u3080\u6c38\u9060
p6687
aI3342
aa(lp6688
VDDFF
p6689
aI3343
aa(lp6690
V\u304a\u3066\u3093\u3070\u604b\u5a18
p6691
aI3344
aa(lp6692
V\u6771\u5317\u4eba\u30db\u30a4\u30db\u30a4
p6693
aI3345
aa(lp6694
Vavex\u516c\u5f0f
p6695
aI3346
aa(lp6696
V\u30b8\u30e3\u30c3\u30ad\u30fc\u30fb\u30c1\u30a7\u30f3
p6697
aI3347
aa(lp6698
V\u3042\u305a\u307e\u3093\u304c\u5927\u738b
p6699
aI3348
aa(lp6700
V\u30b5\u30af\u30bb\u30b9
p6701
aI3349
aa(lp6702
V\u2200\u30ac\u30f3\u30c0\u30e0
p6703
aI3350
aa(lp6704
VBBC
p6705
aI3351
aa(lp6706
V\u624b\u66f8\u304d\u7121\u53cc
p6707
aI3352
aa(lp6708
V\u30d0\u30a4\u30aa\u30ea\u30f3
p6709
aI3353
aa(lp6710
V\u30aa\u30e0\u3055\u3093
p6711
aI3354
aa(lp6712
V\u9022\u5742\u826f\u592a
p6713
aI3355
aa(lp6714
V\u30b4\u30c3\u30c9\u30aa\u30d6\u30a6\u30a9\u30fc
p6715
aI3356
aa(lp6716
V\u30ce\u30fc\u30c0\u30e1\u30fc\u30b8
p6717
aI3357
aa(lp6718
V\u9ebb\u679d\u51c6
p6719
aI3358
aa(lp6720
V\u30ae\u30eb\u30c6\u30a3\u30af\u30e9\u30a6\u30f3
p6721
aI3359
aa(lp6722
V\u30b5\u30eb\u30d5\u30a1
p6723
aI3360
aa(lp6724
Vtricoro
p6725
aI3361
aa(lp6726
Vterraria
p6727
aI3362
aa(lp6728
V\u30c7\u30c7\u30fc\u30f3
p6729
aI3363
aa(lp6730
V\u9b54\u5c0e\u7269\u8a9e
p6731
aI3364
aa(lp6732
V\u30bd\u9023
p6733
aI3365
aa(lp6734
V\u6771\u65b9\u30a4\u30f3\u30b9\u30c8
p6735
aI3366
aa(lp6736
V\u30a6\u30cb\u30e7\u30af
p6737
aI3367
aa(lp6738
V\u7686\u5ddd\u7d14\u5b50
p6739
aI3368
aa(lp6740
VRKRN\u66ff\u30f1\u6b4c
p6741
aI3369
aa(lp6742
V\u30e1\u30e9\u30f3\u30b3\u30ea\u30c3\u30af
p6743
aI3370
aa(lp6744
V\u96ea\u6b4c\u30e6\u30d5
p6745
aI3371
aa(lp6746
V\u30ab\u30af\u30ab\u30af\u52d5\u753b
p6747
aI3372
aa(lp6748
V\u4eee\u9762\u30e9\u30a4\u30c0\u30fc\u30a6\u30a3\u30b6\u30fc\u30c9
p6749
aI3373
aa(lp6750
VIA
p6751
aI3374
aa(lp6752
V\u30c7\u30a3\u30b7\u30c7\u30a3\u30a2MAD
p6753
aI3375
aa(lp6754
V\u30b9\u30ad\u30de\u30b9\u30a4\u30c3\u30c1
p6755
aI3376
aa(lp6756
V\u30cf\u30a4\u30d5\u30a1\u30a4\u30ec\u30a4\u30f4\u30a1\u30fc
p6757
aI3377
aa(lp6758
V\u30ea\u30a2\u5145
p6759
aI3378
aa(lp6760
V\u6771\u65b9\u25cb\u30e1\u30c9\u30ec\u30fc
p6761
aI3379
aa(lp6762
V\u30cf\u30f3\u30b2\u30fc\u30e0
p6763
aI3380
aa(lp6764
V\u30ef\u30fc\u30ca\u30fc
p6765
aI3381
aa(lp6766
VZ\u30ac\u30f3\u30c0\u30e0
p6767
aI3382
aa(lp6768
V\u4f0a\u5439\u8403\u9999
p6769
aI3383
aa(lp6770
VCCFF7
p6771
aI3384
aa(lp6772
V\uff12\uff43\uff48
p6773
aI3385
aa(lp6774
V\u30eb\u30a4\u30fc\u30b8
p6775
aI3386
aa(lp6776
V\u4e0b\u6751\u967d\u5b50
p6777
aI3387
aa(lp6778
V\u6bd4\u90a3\u540d\u5c45\u5929\u5b50
p6779
aI3388
aa(lp6780
V\u30ec\u30ba
p6781
aI3389
aa(lp6782
V\u3053\u3044\u3064\u30fb\u30fb\u30fb\u52d5\u304f\u305e\uff01
p6783
aI3390
aa(lp6784
V\u518d\u3046\uff50\u5e0c\u671b
p6785
aI3391
aa(lp6786
V\u685c\u4e95\u5922\u5b50
p6787
aI3392
aa(lp6788
V\u30e4\u30de\u30cf\u65e5\u520a\u307c\u304b\u3089\u3093
p6789
aI3393
aa(lp6790
V\u4f5c\u753b
p6791
aI3394
aa(lp6792
V\u30c6\u30ad\u30b5\u30b9\u89aa\u7236
p6793
aI3395
aa(lp6794
V\u30af\u30c8\u30a5\u30eb\u30d5\u795e\u8a71
p6795
aI3396
aa(lp6796
V\u304d\u305f\u3060\u306b\u3072\u308d\u3057
p6797
aI3397
aa(lp6798
V\u3082\u3046\u5168\u90e8\u3042\u3044\u3064\u4e00\u4eba\u3067\u3044\u3044\u3093\u3058\u3083\u306a\u3044\u304b\u306a
p6799
aI3398
aa(lp6800
V\u5e73\u548c
p6801
aI3399
aa(lp6802
V\u632f\u308a\u5411\u304d\u53a8
p6803
aI3400
aa(lp6804
V\u30d1\u30c1\u30f3\u30b3\u97f3\u697d
p6805
aI3401
aa(lp6806
V\u5fc5\u6bba\u4ed5\u4e8b\u4eba
p6807
aI3402
aa(lp6808
VLady_Go!!
p6809
aI3403
aa(lp6810
V\u306a\u305c\u6b4c\u3063\u305f
p6811
aI3404
aa(lp6812
V\u307f\u306e\u308a\u3093
p6813
aI3405
aa(lp6814
V\u30e1\u30b7\u30a6\u30de
p6815
aI3406
aa(lp6816
VDeadSpace
p6817
aI3407
aa(lp6818
V\u3086\u3063\u304f\u308a\u89e3\u8aacPart1\u30ea\u30f3\u30af
p6819
aI3408
aa(lp6820
V\u3069\u3046\u3057\u3066\u3053\u3046\u306a\u3089\u306a\u304b\u3063\u305f
p6821
aI3409
aa(lp6822
V\u30ab\u30fc\u30d3\u30a3\u306e\u30a8\u30a2\u30e9\u30a4\u30c9
p6823
aI3410
aa(lp6824
V\u5973\u58f0
p6825
aI3411
aa(lp6826
V\u30bf\u30fc\u30df\u30cd\u30fc\u30bf\u30fc
p6827
aI3412
aa(lp6828
VE3
p6829
aI3413
aa(lp6830
V\u771f\u30fb\u5973\u795e\u8ee2\u751f\u2162
p6831
aI3414
aa(lp6832
Vnao
p6833
aI3415
aa(lp6834
V\u3068\u3073\u3060\u305b\u3069\u3046\u3076\u3064\u306e\u68ee
p6835
aI3416
aa(lp6836
V\u6700\u5f37\u30c1\u30fc\u30e0
p6837
aI3417
aa(lp6838
V\u3046\u3044\u3061
p6839
aI3418
aa(lp6840
V\u30c9\u30ea\u30d5
p6841
aI3419
aa(lp6842
V\u30a2\u30f3\u30c0\u30fc\u30ca\u30a4\u30c8\u30a4\u30f3\u30f4\u30a1\u30fc\u30b9
p6843
aI3420
aa(lp6844
V\u77f3\u7530\u4e09\u6210\uff08\u6226\u56fdBASARA\uff09
p6845
aI3421
aa(lp6846
VSIREN:NT
p6847
aI3422
aa(lp6848
V\u30cd\u30bf
p6849
aI3423
aa(lp6850
V\u8056\u767d\u84ee
p6851
aI3424
aa(lp6852
VDDT
p6853
aI3425
aa(lp6854
V\u30b7\u30f3\u30d5\u30a9\u30cb\u30a2
p6855
aI3426
aa(lp6856
V\u798f\u5ca1\u30bd\u30d5\u30c8\u30d0\u30f3\u30af\u30db\u30fc\u30af\u30b9
p6857
aI3427
aa(lp6858
V\u30b0\u30e9\u30f3\u30c7\u30a3\u30a2
p6859
aI3428
aa(lp6860
VJust_Be_Friends
p6861
aI3429
aa(lp6862
V\u30e9\u30b8\u30d7\u30ea
p6863
aI3430
aa(lp6864
V\u91d1\u8272\u306e\u30b3\u30eb\u30c0
p6865
aI3431
aa(lp6866
V\u30ab\u30f3\u30bf\u30ec\u30e9
p6867
aI3432
aa(lp6868
V\u96e8\u5bae\u5929
p6869
aI3433
aa(lp6870
V\u5168\u3066\u306f\u3053\u3053\u304b\u3089\u59cb\u307e\u3063\u305f
p6871
aI3434
aa(lp6872
V\u30ac\u30aa\u30ac\u30a4\u30ac\u30fc
p6873
aI3435
aa(lp6874
V\u307f\u304f\u307f\u304f\u30c6\u30ec\u30d3\u63a2\u5075\u56e3
p6875
aI3436
aa(lp6876
V2AM
p6877
aI3437
aa(lp6878
V\u885d\u6483\u306e\u7d50\u672b
p6879
aI3438
aa(lp6880
V\u30d4\u30b6
p6881
aI3439
aa(lp6882
V\u3061\u3087\u3044
p6883
aI3440
aa(lp6884
VDARKSOULS\u2161
p6885
aI3441
aa(lp6886
V\u30c9\u30e9\u30af\u30a8\uff17
p6887
aI3442
aa(lp6888
V\u8056\u9b54\u306e\u5149\u77f3
p6889
aI3443
aa(lp6890
VRPG\u5b9f\u6cc1part1\u30ea\u30f3\u30af
p6891
aI3444
aa(lp6892
V\u5929\u4e0b\u4e00\u5c06\u68cb\u4f1a
p6893
aI3445
aa(lp6894
VMGS5
p6895
aI3446
aa(lp6896
VMEGWIN
p6897
aI3447
aa(lp6898
V\u897f\u660e\u65e5\u9999
p6899
aI3448
aa(lp6900
V\u4ef2\u826f\u6b7b
p6901
aI3449
aa(lp6902
V\u6c11\u5b89\u3068\u3082\u3048
p6903
aI3450
aa(lp6904
V\u30cd\u30bf\u3092\u631f\u307e\u306a\u3044\u3068\u6b7b\u3093\u3058\u3083\u3046\u75c5
p6905
aI3451
aa(lp6906
V\u306e\u3073\u592a\u306eBIOHAZARD
p6907
aI3452
aa(lp6908
V\u30d7\u30ed\u91ce\u74032014
p6909
aI3453
aa(lp6910
V\u30d2\u30ab\u30ad\u30f3\u30c1\u30eb\u30c9\u30ec\u30f3
p6911
aI3454
aa(lp6912
V\u5909\u614b\u7d33\u58eb
p6913
aI3455
aa(lp6914
Vjazz
p6915
aI3456
aa(lp6916
V\u30c9\u30ad\u30c9\u30ad\uff01\u30d7\u30ea\u30ad\u30e5\u30a2
p6917
aI3457
aa(lp6918
V\u6b62\u3081\u3066\u3082\u52d5\u304f
p6919
aI3458
aa(lp6920
V\u81ea\u8ee2\u8eca\u65c5\u884c
p6921
aI3459
aa(lp6922
V\u68ee\u8fd1\u9716\u4e4b\u52a9
p6923
aI3460
aa(lp6924
V\u30bb\u30ea\u30d5\u96c6
p6925
aI3461
aa(lp6926
V\u65e5\u672c\u4e00\u5468
p6927
aI3462
aa(lp6928
V\u30aa\u30bf\u30af
p6929
aI3463
aa(lp6930
V\u753b\u8cea\u7686\u4f1d
p6931
aI3464
aa(lp6932
V\u9ad8\u5c3e\u548c\u6210
p6933
aI3465
aa(lp6934
V\u30cb\u30b3\u30cb\u30b3\u6280\u8853\u90e8\u990a\u6210\u8b1b\u5ea7
p6935
aI3466
aa(lp6936
V\u9577\u66fe\u6211\u90e8\u5143\u89aa\uff08\u6226\u56fdBASARA\uff09
p6937
aI3467
aa(lp6938
V\u30a8\u30a4\u30d7\u30ea\u30eb\u30d5\u30fc\u30eb
p6939
aI3468
aa(lp6940
V\u4eee\u9762\u30e9\u30a4\u30c0\u30fc\u30ad\u30d0
p6941
aI3469
aa(lp6942
V\u524d\u91ce\u667a\u662d
p6943
aI3470
aa(lp6944
V\u6559\u3048\u3066!!\u9b54\u6cd5\u306eLyric
p6945
aI3471
aa(lp6946
V\u30dc\u30a6\u30ba\u30d7\u30ed\u30d1\u30ac\u30f3\u30c0\u30fc
p6947
aI3472
aa(lp6948
V\u5996\u7cbe\u5e1d\u570b
p6949
aI3473
aa(lp6950
V\u7d30\u91ce\u6674\u81e3
p6951
aI3474
aa(lp6952
VVOCALOID\u5e7b\u60f3\u72c2\u6c17\u66f2\u30ea\u30f3\u30af
p6953
aI3475
aa(lp6954
V\u7279\u64ae\u73a9\u5177
p6955
aI3476
aa(lp6956
Vremix
p6957
aI3477
aa(lp6958
V\u7f8e\u58f0\u306e\u7121\u99c4\u9063\u3044
p6959
aI3478
aa(lp6960
V\u30b2\u30c3\u30bf\u30fc\u30ed\u30dc
p6961
aI3479
aa(lp6962
V\u795e\u8a66\u5408
p6963
aI3480
aa(lp6964
V\u75c5\u9662\u9003\u3052\u3066
p6965
aI3481
aa(lp6966
V\u4f50\u6a4b\u4fca\u5f66
p6967
aI3482
aa(lp6968
V\u30dd\u30b1\u30e2\u30f3\uff22\uff37
p6969
aI3483
aa(lp6970
V\u5c11\u5973\u9769\u547d\u30a6\u30c6\u30ca
p6971
aI3484
aa(lp6972
VHL2
p6973
aI3485
aa(lp6974
V\u30d7\u30ea\u30ad\u30e5\u30a2\u30aa\u30fc\u30eb\u30b9\u30bf\u30fc\u30ba
p6975
aI3486
aa(lp6976
V\u6c34\u6a4b\u30d1\u30eb\u30b9\u30a3
p6977
aI3487
aa(lp6978
V\u8d64\u30c6\u30a3\u30f3
p6979
aI3488
aa(lp6980
V\u3077\u3088\u3077\u3088\u5dee\u3057\u66ff\u3048
p6981
aI3489
aa(lp6982
V\u795eBGM
p6983
aI3490
aa(lp6984
V\u4e0b\u30cd\u30bf
p6985
aI3491
aa(lp6986
V96\u732b
p6987
aI3492
aa(lp6988
V\u30c8\u30e9\u30ad\u30a2776
p6989
aI3493
aa(lp6990
V\u6771\u65b9\u4e57\u8eca\u9332
p6991
aI3494
aa(lp6992
V\u3084\u3081\u305f\u3052\u3066\u3088\u3049\uff01
p6993
aI3495
aa(lp6994
V\u30e9\u30ea\u30fc
p6995
aI3496
aa(lp6996
V\u7d20\u6750
p6997
aI3497
aa(lp6998
V\u96f6\uff5e\u6708\u8755\u306e\u4eee\u9762\uff5e
p6999
aI3498
aa(lp7000
V\u4eba\u529b\u5200\u5263\u4e71\u821e
p7001
aI3499
aa(lp7002
VDECO*27
p7003
aI3500
aa(lp7004
V\u30a2\u30cb\u30e1OPED
p7005
aI3501
aa(lp7006
V\u8056\u5263\u4f1d\u8aacLOM
p7007
aI3502
aa(lp7008
V\u5730\u7403\u6e29\u6696\u6b4c
p7009
aI3503
aa(lp7010
VBUCK-TICK
p7011
aI3504
aa(lp7012
V\u30b4\u30fc\u30eb\u96c6
p7013
aI3505
aa(lp7014
Vstreet_dance\u7d71\u4e00\u30bf\u30b0
p7015
aI3506
aa(lp7016
V\u30df\u30f3\u30b9\u30c8\u30ec\u30eb\u30bd\u30f3\u30b0
p7017
aI3507
aa(lp7018
V\u9b54\u6cd5\u9663\u30b0\u30eb\u30b0\u30eb
p7019
aI3508
aa(lp7020
VMinecraft\u6280\u8853\u90e8
p7021
aI3509
aa(lp7022
VJR\u6771\u6d77
p7023
aI3510
aa(lp7024
V\u9756\u56fd\u795e\u793e
p7025
aI3511
aa(lp7026
V\u30aa\u30ca\u30cb\u30fc
p7027
aI3512
aa(lp7028
Vwarage
p7029
aI3513
aa(lp7030
VPC\u7248
p7031
aI3514
aa(lp7032
V\u30ec\u30a2\u793e
p7033
aI3515
aa(lp7034
V\u30df\u30ea\u30bf\u30ea\u30fc
p7035
aI3516
aa(lp7036
V\u795e\u4f5c\u753b
p7037
aI3517
aa(lp7038
VIevanPolkka
p7039
aI3518
aa(lp7040
VRM
p7041
aI3519
aa(lp7042
V\u30b8\u30a7\u30d0\u30f3\u30cb\u304c\u4e00\u6669\u3067\u3084\u3063\u3066\u304f\u308c\u307e\u3057\u305f
p7043
aI3520
aa(lp7044
V\u91d1\u9b42
p7045
aI3521
aa(lp7046
V\u30c1\u30d9\u30c3\u30c8
p7047
aI3522
aa(lp7048
VDOA
p7049
aI3523
aa(lp7050
VUTAU\u30aa\u30ea\u30b8\u30ca\u30eb\u3092\u6b4c\u3063\u3066\u307f\u305f
p7051
aI3524
aa(lp7052
V\u822a\u7a7a\u81ea\u885b\u968a
p7053
aI3525
aa(lp7054
V\u30ed\u30c3\u30af\u30de\u30f3\u30a2\u30ec\u30f3\u30b8\u96c6\u30ea\u30f3\u30af
p7055
aI3526
aa(lp7056
V\u6deb\u5922\u304f\u3093
p7057
aI3527
aa(lp7058
V\u30ac\u30eb\u30d1\u30f3MAD
p7059
aI3528
aa(lp7060
V\u30d0\u30c8\u30eb\u6deb\u5922
p7061
aI3529
aa(lp7062
V\u4e2d\u7530\u8b72\u6cbb
p7063
aI3530
aa(lp7064
V\u3042\u308b\u3042\u308bor\u306d\u30fc\u3088
p7065
aI3531
aa(lp7066
V\u3068\u304b\u3061
p7067
aI3532
aa(lp7068
V\u6b7b\u4ea1\u30b7\u30fc\u30f3\u96c6
p7069
aI3533
aa(lp7070
V\u30de\u30af\u30c9\u30ca\u30eb\u30c9
p7071
aI3534
aa(lp7072
V\u95b2\u89a7\u6ce8\u610f
p7073
aI3535
aa(lp7074
VYUI
p7075
aI3536
aa(lp7076
VPSYCHO-PASS
p7077
aI3537
aa(lp7078
VJOINT
p7079
aI3538
aa(lp7080
V\u771f\u7530\u5e78\u6751(\u6226\u56fdBASARA)
p7081
aI3539
aa(lp7082
VTBS
p7083
aI3540
aa(lp7084
V\u308a\u3087\u3046\u3086\u3081
p7085
aI3541
aa(lp7086
VWWF
p7087
aI3542
aa(lp7088
V\u30de\u30ea\u30aa\u30b9\u30c8\u30fc\u30ea\u30fc
p7089
aI3543
aa(lp7090
V\u30b9\u30c8\uff12
p7091
aI3544
aa(lp7092
V\u30bb\u30af\u30b7\u30fc\u30c0\u30f3\u30b9
p7093
aI3545
aa(lp7094
V\u30d0\u30ec\u30f3\u30bf\u30a4\u30f3
p7095
aI3546
aa(lp7096
V\u767d\u732b\u30d7\u30ed\u30b8\u30a7\u30af\u30c8
p7097
aI3547
aa(lp7098
V\u7f8e\u4eba
p7099
aI3548
aa(lp7100
V\u51f8
p7101
aI3549
aa(lp7102
V\u3086\u3063\u304f\u308a\u751f\u6d3b
p7103
aI3550
aa(lp7104
V\u8c37\u53e3
p7105
aI3551
aa(lp7106
V\u30eb\u30fc\u30d7
p7107
aI3552
aa(lp7108
VHONDA
p7109
aI3553
aa(lp7110
VDearGirl\uff5eStories\uff5e
p7111
aI3554
aa(lp7112
V\u4eee\u9762\u30e9\u30a4\u30c0\u30fc\u9f8d\u9a0e
p7113
aI3555
aa(lp7114
V\u30a4\u30c8\u30b1\u30f3
p7115
aI3556
aa(lp7116
VEDM
p7117
aI3557
aa(lp7118
V\u3053\u3069\u3082\u306e\u3058\u304b\u3093
p7119
aI3558
aa(lp7120
V\u30b8\u30e3\u30f3\u30d7
p7121
aI3559
aa(lp7122
V\u30d4\u30a2\u30ce\u30df\u30af
p7123
aI3560
aa(lp7124
V\u56f2\u7089\u88cf
p7125
aI3561
aa(lp7126
V\u5927\u97f3\u91cf\u63a8\u5968
p7127
aI3562
aa(lp7128
V\u3078\u3063\u307d\u3053\u30b7\u30ea\u30fc\u30ba
p7129
aI3563
aa(lp7130
VKalafina
p7131
aI3564
aa(lp7132
V\u6a5f\u52d5\u6226\u58eb\u30ac\u30f3\u30c0\u30e0\u30d0\u30c8\u30eb\u30aa\u30da\u30ec\u30fc\u30b7\u30e7\u30f3
p7133
aI3565
aa(lp7134
VLOVE&amp;JOY
p7135
aI3566
aa(lp7136
V\u9244\u677f\u30b9\u30d1(\u30a6\u30a3\u30f3\u30ca\u30fc)
p7137
aI3567
aa(lp7138
V\u6771\u65b9\u540d\u66f2
p7139
aI3568
aa(lp7140
V\u30b5\u30a4\u30ec\u30f3
p7141
aI3569
aa(lp7142
V\u30c1\u30a7\u30eb\u30b7\u30fc
p7143
aI3570
aa(lp7144
V\u30b7\u30e3\u30c9\u30a6\u30cf\u30fc\u30c4
p7145
aI3571
aa(lp7146
V\u3060\u3051\u306e\u4eba
p7147
aI3572
aa(lp7148
V\u7a2e\u7530\u68a8\u6c99
p7149
aI3573
aa(lp7150
V\u6700\u5f37\u30d1\u30ec\u30d1\u30ec\u30fc\u30c9
p7151
aI3574
aa(lp7152
V\u4e09\u65e5\u6708\u5b97\u8fd1(\u5200\u5263\u4e71\u821e)
p7153
aI3575
aa(lp7154
V\u30d7\u30ec\u30c7\u30bf\u30fc
p7155
aI3576
aa(lp7156
V\u9b54\u6cd5\u5c11\u5973
p7157
aI3577
aa(lp7158
V\u30ab\u30d0\u30fc\u66f2
p7159
aI3578
aa(lp7160
V\u30c6\u30df\u30f3
p7161
aI3579
aa(lp7162
V\u8266\u5a18\u3086\u3063\u304f\u308a\u5b9f\u6cc1\u30d7\u30ec\u30a4
p7163
aI3580
aa(lp7164
VASKA
p7165
aI3581
aa(lp7166
V\u96d1\u8ac7
p7167
aI3582
aa(lp7168
V\u4e0a\u7d1a\u8005\u5411\u3051AP\u30d8\u30bf\u30ea\u30a2
p7169
aI3583
aa(lp7170
V\u30c9\u30e9\u30af\u30a86
p7171
aI3584
aa(lp7172
V\u9244\u62f36
p7173
aI3585
aa(lp7174
V\u53f8\u7a7a
p7175
aI3586
aa(lp7176
VDQX
p7177
aI3587
aa(lp7178
V\u975e\u6771\u65b9\u66f2PV\u30ea\u30f3\u30af
p7179
aI3588
aa(lp7180
V\u795e\u696d
p7181
aI3589
aa(lp7182
V\u30aa\u30c8\u30e1\u30a4\u30c8
p7183
aI3590
aa(lp7184
V\u3044\u3058\u3081
p7185
aI3591
aa(lp7186
V\u307f\u3064\u3069\u3082\u3048
p7187
aI3592
aa(lp7188
VMOSAIC.WAV
p7189
aI3593
aa(lp7190
V\u30e9\u30d4\u30e5\u30bf
p7191
aI3594
aa(lp7192
V\u6771\u65b9MAD
p7193
aI3595
aa(lp7194
V\u67ca\u3064\u304b\u3055
p7195
aI3596
aa(lp7196
Vdj_TAKA
p7197
aI3597
aa(lp7198
VJAXA
p7199
aI3598
aa(lp7200
V\u4f8b\u306e\u30b4\u30df
p7201
aI3599
aa(lp7202
V\u540d\u53e4\u5c4b
p7203
aI3600
aa(lp7204
V\u82f1\u96c4
p7205
aI3601
aa(lp7206
V\u3053\u3053\u306b\u5efa\u3066\u305f\u75c5\u9662\u304c\u9003\u3052\u305f
p7207
aI3602
aa(lp7208
V\u30d0\u30eb\u30ed\u30b0
p7209
aI3603
aa(lp7210
V\u30d5\u30b8\u30de\u30ed
p7211
aI3604
aa(lp7212
V\u30e2\u30b6\u30a4\u30af
p7213
aI3605
aa(lp7214
VR18MMD
p7215
aI3606
aa(lp7216
V\u751f\u4e3b
p7217
aI3607
aa(lp7218
V\u30c6\u30a4\u30eb\u30ba\u30aa\u30d6\u30a8\u30bf\u30fc\u30cb\u30a2
p7219
aI3608
aa(lp7220
V\u65b0\u4e95\u91cc\u7f8e
p7221
aI3609
aa(lp7222
V\u30d1\u30a4\u30d1\u30f3
p7223
aI3610
aa(lp7224
V\u5bae\u5d0e\u99ff
p7225
aI3611
aa(lp7226
V\u93d1\u6728\u30fbT\u30fb\u864e\u5fb9
p7227
aI3612
aa(lp7228
VDOA5U
p7229
aI3613
aa(lp7230
V\u5009\u5c71\u6e80
p7231
aI3614
aa(lp7232
V\u30b9\u30fc\u30d1\u30fc\u30b9\u30c8\u30ea\u30fc\u30c8\u30d5\u30a1\u30a4\u30bf\u30fcIV
p7233
aI3615
aa(lp7234
V\u3046\u305f\u30d7\u30ea
p7235
aI3616
aa(lp7236
VBF2
p7237
aI3617
aa(lp7238
V\u5409\u7530\u5c1a\u8a18
p7239
aI3618
aa(lp7240
V\u30ed\u30b1\u30c3\u30c8
p7241
aI3619
aa(lp7242
V\u9913\u72fc\u4f1d\u8aac
p7243
aI3620
aa(lp7244
ViM@S\u30a2\u30cb\u30bd\u30f3\u30b3\u30e9\u30dcPV
p7245
aI3621
aa(lp7246
V\u672c\u6c17\u3067\u6b4c\u3046\u3086\u3063\u304f\u308a\u30b7\u30ea\u30fc\u30ba
p7247
aI3622
aa(lp7248
V\u4f0a\u798f\u90e8\u5d07
p7249
aI3623
aa(lp7250
V\u8105\u5a01\u306e\u30b7\u30f3\u30af\u30ed\u7387
p7251
aI3624
aa(lp7252
V\u671d\u83ca
p7253
aI3625
aa(lp7254
V\u3086\u304d\u307e\u3053
p7255
aI3626
aa(lp7256
V\u5343\u8449\u7e41
p7257
aI3627
aa(lp7258
V\u624b\u63cf\u304d\u4efb\u5929\u5802\u30b7\u30ea\u30fc\u30ba
p7259
aI3628
aa(lp7260
V\u840c\u3048\u308b\u30e4\u30b7
p7261
aI3629
aa(lp7262
V\u304b\u306a\u3044\u307f\u304b
p7263
aI3630
aa(lp7264
V\u96fb\u8eca
p7265
aI3631
aa(lp7266
V\u30bb\u30f3\u30c8\u30e9\u30eb\u516b\u738b\u5b50
p7267
aI3632
aa(lp7268
V\u3082\u3063\u3068\u8a55\u4fa1\u3055\u308c\u308b\u3079\u304d\uff08\u8150\uff09
p7269
aI3633
aa(lp7270
V\u592a\u5e73\u6d0b\u6226\u4e89
p7271
aI3634
aa(lp7272
V\u518d\u4e16\u7bc7
p7273
aI3635
aa(lp7274
VBO
p7275
aI3636
aatp7276
Rp7277
.